
project1.elf:     file format elf64-x86-64


Disassembly of section .init:

0000000000400508 <_init>:
  400508:	48 83 ec 08          	sub    $0x8,%rsp
  40050c:	48 8b 05 e5 2a 20 00 	mov    0x202ae5(%rip),%rax        # 602ff8 <_DYNAMIC+0x1d0>
  400513:	48 85 c0             	test   %rax,%rax
  400516:	74 05                	je     40051d <_init+0x15>
  400518:	e8 93 00 00 00       	callq  4005b0 <exit@plt+0x10>
  40051d:	48 83 c4 08          	add    $0x8,%rsp
  400521:	c3                   	retq   

Disassembly of section .plt:

0000000000400530 <free@plt-0x10>:
  400530:	ff 35 d2 2a 20 00    	pushq  0x202ad2(%rip)        # 603008 <_GLOBAL_OFFSET_TABLE_+0x8>
  400536:	ff 25 d4 2a 20 00    	jmpq   *0x202ad4(%rip)        # 603010 <_GLOBAL_OFFSET_TABLE_+0x10>
  40053c:	0f 1f 40 00          	nopl   0x0(%rax)

0000000000400540 <free@plt>:
  400540:	ff 25 d2 2a 20 00    	jmpq   *0x202ad2(%rip)        # 603018 <_GLOBAL_OFFSET_TABLE_+0x18>
  400546:	68 00 00 00 00       	pushq  $0x0
  40054b:	e9 e0 ff ff ff       	jmpq   400530 <_init+0x28>

0000000000400550 <puts@plt>:
  400550:	ff 25 ca 2a 20 00    	jmpq   *0x202aca(%rip)        # 603020 <_GLOBAL_OFFSET_TABLE_+0x20>
  400556:	68 01 00 00 00       	pushq  $0x1
  40055b:	e9 d0 ff ff ff       	jmpq   400530 <_init+0x28>

0000000000400560 <__stack_chk_fail@plt>:
  400560:	ff 25 c2 2a 20 00    	jmpq   *0x202ac2(%rip)        # 603028 <_GLOBAL_OFFSET_TABLE_+0x28>
  400566:	68 02 00 00 00       	pushq  $0x2
  40056b:	e9 c0 ff ff ff       	jmpq   400530 <_init+0x28>

0000000000400570 <printf@plt>:
  400570:	ff 25 ba 2a 20 00    	jmpq   *0x202aba(%rip)        # 603030 <_GLOBAL_OFFSET_TABLE_+0x30>
  400576:	68 03 00 00 00       	pushq  $0x3
  40057b:	e9 b0 ff ff ff       	jmpq   400530 <_init+0x28>

0000000000400580 <__libc_start_main@plt>:
  400580:	ff 25 b2 2a 20 00    	jmpq   *0x202ab2(%rip)        # 603038 <_GLOBAL_OFFSET_TABLE_+0x38>
  400586:	68 04 00 00 00       	pushq  $0x4
  40058b:	e9 a0 ff ff ff       	jmpq   400530 <_init+0x28>

0000000000400590 <malloc@plt>:
  400590:	ff 25 aa 2a 20 00    	jmpq   *0x202aaa(%rip)        # 603040 <_GLOBAL_OFFSET_TABLE_+0x40>
  400596:	68 05 00 00 00       	pushq  $0x5
  40059b:	e9 90 ff ff ff       	jmpq   400530 <_init+0x28>

00000000004005a0 <exit@plt>:
  4005a0:	ff 25 a2 2a 20 00    	jmpq   *0x202aa2(%rip)        # 603048 <_GLOBAL_OFFSET_TABLE_+0x48>
  4005a6:	68 06 00 00 00       	pushq  $0x6
  4005ab:	e9 80 ff ff ff       	jmpq   400530 <_init+0x28>

Disassembly of section .plt.got:

00000000004005b0 <.plt.got>:
  4005b0:	ff 25 42 2a 20 00    	jmpq   *0x202a42(%rip)        # 602ff8 <_DYNAMIC+0x1d0>
  4005b6:	66 90                	xchg   %ax,%ax

Disassembly of section .text:

00000000004005c0 <_start>:
  4005c0:	31 ed                	xor    %ebp,%ebp
  4005c2:	49 89 d1             	mov    %rdx,%r9
  4005c5:	5e                   	pop    %rsi
  4005c6:	48 89 e2             	mov    %rsp,%rdx
  4005c9:	48 83 e4 f0          	and    $0xfffffffffffffff0,%rsp
  4005cd:	50                   	push   %rax
  4005ce:	54                   	push   %rsp
  4005cf:	49 c7 c0 50 19 40 00 	mov    $0x401950,%r8
  4005d6:	48 c7 c1 e0 18 40 00 	mov    $0x4018e0,%rcx
  4005dd:	48 c7 c7 83 15 40 00 	mov    $0x401583,%rdi
  4005e4:	e8 97 ff ff ff       	callq  400580 <__libc_start_main@plt>
  4005e9:	f4                   	hlt    
  4005ea:	66 0f 1f 44 00 00    	nopw   0x0(%rax,%rax,1)

00000000004005f0 <deregister_tm_clones>:
  4005f0:	b8 6f 30 60 00       	mov    $0x60306f,%eax
  4005f5:	55                   	push   %rbp
  4005f6:	48 2d 68 30 60 00    	sub    $0x603068,%rax
  4005fc:	48 83 f8 0e          	cmp    $0xe,%rax
  400600:	48 89 e5             	mov    %rsp,%rbp
  400603:	76 1b                	jbe    400620 <deregister_tm_clones+0x30>
  400605:	b8 00 00 00 00       	mov    $0x0,%eax
  40060a:	48 85 c0             	test   %rax,%rax
  40060d:	74 11                	je     400620 <deregister_tm_clones+0x30>
  40060f:	5d                   	pop    %rbp
  400610:	bf 68 30 60 00       	mov    $0x603068,%edi
  400615:	ff e0                	jmpq   *%rax
  400617:	66 0f 1f 84 00 00 00 	nopw   0x0(%rax,%rax,1)
  40061e:	00 00 
  400620:	5d                   	pop    %rbp
  400621:	c3                   	retq   
  400622:	0f 1f 40 00          	nopl   0x0(%rax)
  400626:	66 2e 0f 1f 84 00 00 	nopw   %cs:0x0(%rax,%rax,1)
  40062d:	00 00 00 

0000000000400630 <register_tm_clones>:
  400630:	be 68 30 60 00       	mov    $0x603068,%esi
  400635:	55                   	push   %rbp
  400636:	48 81 ee 68 30 60 00 	sub    $0x603068,%rsi
  40063d:	48 c1 fe 03          	sar    $0x3,%rsi
  400641:	48 89 e5             	mov    %rsp,%rbp
  400644:	48 89 f0             	mov    %rsi,%rax
  400647:	48 c1 e8 3f          	shr    $0x3f,%rax
  40064b:	48 01 c6             	add    %rax,%rsi
  40064e:	48 d1 fe             	sar    %rsi
  400651:	74 15                	je     400668 <register_tm_clones+0x38>
  400653:	b8 00 00 00 00       	mov    $0x0,%eax
  400658:	48 85 c0             	test   %rax,%rax
  40065b:	74 0b                	je     400668 <register_tm_clones+0x38>
  40065d:	5d                   	pop    %rbp
  40065e:	bf 68 30 60 00       	mov    $0x603068,%edi
  400663:	ff e0                	jmpq   *%rax
  400665:	0f 1f 00             	nopl   (%rax)
  400668:	5d                   	pop    %rbp
  400669:	c3                   	retq   
  40066a:	66 0f 1f 44 00 00    	nopw   0x0(%rax,%rax,1)

0000000000400670 <__do_global_dtors_aux>:
  400670:	80 3d ed 29 20 00 00 	cmpb   $0x0,0x2029ed(%rip)        # 603064 <_edata>
  400677:	75 11                	jne    40068a <__do_global_dtors_aux+0x1a>
  400679:	55                   	push   %rbp
  40067a:	48 89 e5             	mov    %rsp,%rbp
  40067d:	e8 6e ff ff ff       	callq  4005f0 <deregister_tm_clones>
  400682:	5d                   	pop    %rbp
  400683:	c6 05 da 29 20 00 01 	movb   $0x1,0x2029da(%rip)        # 603064 <_edata>
  40068a:	f3 c3                	repz retq 
  40068c:	0f 1f 40 00          	nopl   0x0(%rax)

0000000000400690 <frame_dummy>:
  400690:	bf 20 2e 60 00       	mov    $0x602e20,%edi
  400695:	48 83 3f 00          	cmpq   $0x0,(%rdi)
  400699:	75 05                	jne    4006a0 <frame_dummy+0x10>
  40069b:	eb 93                	jmp    400630 <register_tm_clones>
  40069d:	0f 1f 00             	nopl   (%rax)
  4006a0:	b8 00 00 00 00       	mov    $0x0,%eax
  4006a5:	48 85 c0             	test   %rax,%rax
  4006a8:	74 f1                	je     40069b <frame_dummy+0xb>
  4006aa:	55                   	push   %rbp
  4006ab:	48 89 e5             	mov    %rsp,%rbp
  4006ae:	ff d0                	callq  *%rax
  4006b0:	5d                   	pop    %rbp
  4006b1:	e9 7a ff ff ff       	jmpq   400630 <register_tm_clones>

00000000004006b6 <my_itoa>:
 *
 */
 

uint8_t my_itoa(int32_t data, uint8_t * ptr, uint32_t base)
{
  4006b6:	55                   	push   %rbp
  4006b7:	48 89 e5             	mov    %rsp,%rbp
  4006ba:	89 7d ec             	mov    %edi,-0x14(%rbp)
  4006bd:	48 89 75 e0          	mov    %rsi,-0x20(%rbp)
  4006c1:	89 55 e8             	mov    %edx,-0x18(%rbp)
	uint32_t check=data; //data is copied into check to find out the length of the string without affecting data
  4006c4:	8b 45 ec             	mov    -0x14(%rbp),%eax
  4006c7:	89 45 fc             	mov    %eax,-0x4(%rbp)
	uint8_t stringsize=0;
  4006ca:	c6 45 f9 00          	movb   $0x0,-0x7(%rbp)
	uint8_t length = 0;
  4006ce:	c6 45 fa 00          	movb   $0x0,-0x6(%rbp)
	uint8_t sign=0;      // sign=0 means the given signed integer is positive and sign=1 means the given signed integer is negative
  4006d2:	c6 45 fb 00          	movb   $0x0,-0x5(%rbp)
	if(data<0)
  4006d6:	83 7d ec 00          	cmpl   $0x0,-0x14(%rbp)
  4006da:	79 27                	jns    400703 <my_itoa+0x4d>
	{
		data=-data;  //data is made positive so that calculations become easier , the minus sign is added later on in the code
  4006dc:	f7 5d ec             	negl   -0x14(%rbp)
		sign=1;
  4006df:	c6 45 fb 01          	movb   $0x1,-0x5(%rbp)
                check = data;
  4006e3:	8b 45 ec             	mov    -0x14(%rbp),%eax
  4006e6:	89 45 fc             	mov    %eax,-0x4(%rbp)
	}		
                while(check!=0)  //the number is divided by the base until the quotient is zero , this helps in finding out the length of the string
  4006e9:	eb 18                	jmp    400703 <my_itoa+0x4d>
		{
                  check=check/base;
  4006eb:	8b 45 fc             	mov    -0x4(%rbp),%eax
  4006ee:	ba 00 00 00 00       	mov    $0x0,%edx
  4006f3:	f7 75 e8             	divl   -0x18(%rbp)
  4006f6:	89 45 fc             	mov    %eax,-0x4(%rbp)
                  stringsize ++;
  4006f9:	0f b6 45 f9          	movzbl -0x7(%rbp),%eax
  4006fd:	83 c0 01             	add    $0x1,%eax
  400700:	88 45 f9             	mov    %al,-0x7(%rbp)
	{
		data=-data;  //data is made positive so that calculations become easier , the minus sign is added later on in the code
		sign=1;
                check = data;
	}		
                while(check!=0)  //the number is divided by the base until the quotient is zero , this helps in finding out the length of the string
  400703:	83 7d fc 00          	cmpl   $0x0,-0x4(%rbp)
  400707:	75 e2                	jne    4006eb <my_itoa+0x35>
		{
                  check=check/base;
                  stringsize ++;
		}
		length = stringsize; 
  400709:	0f b6 45 f9          	movzbl -0x7(%rbp),%eax
  40070d:	88 45 fa             	mov    %al,-0x6(%rbp)
		ptr = ptr+stringsize+sign;
  400710:	0f b6 55 f9          	movzbl -0x7(%rbp),%edx
  400714:	0f b6 45 fb          	movzbl -0x5(%rbp),%eax
  400718:	48 01 d0             	add    %rdx,%rax
  40071b:	48 01 45 e0          	add    %rax,-0x20(%rbp)
                *(ptr)='\0'; //the last byte of the string is NULL	
  40071f:	48 8b 45 e0          	mov    -0x20(%rbp),%rax
  400723:	c6 00 00             	movb   $0x0,(%rax)
		while(length>0)
  400726:	eb 71                	jmp    400799 <my_itoa+0xe3>
	          {
			  if(data!=0)
  400728:	83 7d ec 00          	cmpl   $0x0,-0x14(%rbp)
  40072c:	74 05                	je     400733 <my_itoa+0x7d>
			  {
				  ptr--;
  40072e:	48 83 6d e0 01       	subq   $0x1,-0x20(%rbp)
			  }
		       if(data%base>=10)
  400733:	8b 45 ec             	mov    -0x14(%rbp),%eax
  400736:	ba 00 00 00 00       	mov    $0x0,%edx
  40073b:	f7 75 e8             	divl   -0x18(%rbp)
  40073e:	89 d0                	mov    %edx,%eax
  400740:	83 f8 09             	cmp    $0x9,%eax
  400743:	76 26                	jbe    40076b <my_itoa+0xb5>
		       {
		       *ptr=(data%base)+55;  //this moves the ASCII values of numbers between 10 and 15 into the pointer location
  400745:	8b 45 ec             	mov    -0x14(%rbp),%eax
  400748:	ba 00 00 00 00       	mov    $0x0,%edx
  40074d:	f7 75 e8             	divl   -0x18(%rbp)
  400750:	89 d0                	mov    %edx,%eax
  400752:	8d 50 37             	lea    0x37(%rax),%edx
  400755:	48 8b 45 e0          	mov    -0x20(%rbp),%rax
  400759:	88 10                	mov    %dl,(%rax)
			data=data/base;
  40075b:	8b 45 ec             	mov    -0x14(%rbp),%eax
  40075e:	ba 00 00 00 00       	mov    $0x0,%edx
  400763:	f7 75 e8             	divl   -0x18(%rbp)
  400766:	89 45 ec             	mov    %eax,-0x14(%rbp)
  400769:	eb 24                	jmp    40078f <my_itoa+0xd9>
		       }	
		       else
		       {
		        *ptr=(data%base)+48; //this moves the ASCII values of numbers between 0 and 9 into the pointer location
  40076b:	8b 45 ec             	mov    -0x14(%rbp),%eax
  40076e:	ba 00 00 00 00       	mov    $0x0,%edx
  400773:	f7 75 e8             	divl   -0x18(%rbp)
  400776:	89 d0                	mov    %edx,%eax
  400778:	8d 50 30             	lea    0x30(%rax),%edx
  40077b:	48 8b 45 e0          	mov    -0x20(%rbp),%rax
  40077f:	88 10                	mov    %dl,(%rax)
			 data=data/base;
  400781:	8b 45 ec             	mov    -0x14(%rbp),%eax
  400784:	ba 00 00 00 00       	mov    $0x0,%edx
  400789:	f7 75 e8             	divl   -0x18(%rbp)
  40078c:	89 45 ec             	mov    %eax,-0x14(%rbp)
		       }
                    length--;
  40078f:	0f b6 45 fa          	movzbl -0x6(%rbp),%eax
  400793:	83 e8 01             	sub    $0x1,%eax
  400796:	88 45 fa             	mov    %al,-0x6(%rbp)
                  stringsize ++;
		}
		length = stringsize; 
		ptr = ptr+stringsize+sign;
                *(ptr)='\0'; //the last byte of the string is NULL	
		while(length>0)
  400799:	80 7d fa 00          	cmpb   $0x0,-0x6(%rbp)
  40079d:	75 89                	jne    400728 <my_itoa+0x72>
		        *ptr=(data%base)+48; //this moves the ASCII values of numbers between 0 and 9 into the pointer location
			 data=data/base;
		       }
                    length--;
                   }
                 if (sign==1)
  40079f:	80 7d fb 01          	cmpb   $0x1,-0x5(%rbp)
  4007a3:	75 0c                	jne    4007b1 <my_itoa+0xfb>
                {
		     ptr = ptr-1;
  4007a5:	48 83 6d e0 01       	subq   $0x1,-0x20(%rbp)
                     *ptr=45; //ASCII value of minus sign
  4007aa:	48 8b 45 e0          	mov    -0x20(%rbp),%rax
  4007ae:	c6 00 2d             	movb   $0x2d,(%rax)
                }
                return(stringsize+sign+1);
  4007b1:	0f b6 55 f9          	movzbl -0x7(%rbp),%edx
  4007b5:	0f b6 45 fb          	movzbl -0x5(%rbp),%eax
  4007b9:	01 d0                	add    %edx,%eax
  4007bb:	83 c0 01             	add    $0x1,%eax
}
  4007be:	5d                   	pop    %rbp
  4007bf:	c3                   	retq   

00000000004007c0 <my_atoi>:
 * @return - the signed integer
 *
 */

int32_t my_atoi(uint8_t * ptr, uint8_t digits, uint32_t base)
{
  4007c0:	55                   	push   %rbp
  4007c1:	48 89 e5             	mov    %rsp,%rbp
  4007c4:	48 89 7d e8          	mov    %rdi,-0x18(%rbp)
  4007c8:	89 f0                	mov    %esi,%eax
  4007ca:	89 55 e0             	mov    %edx,-0x20(%rbp)
  4007cd:	88 45 e4             	mov    %al,-0x1c(%rbp)
 uint8_t i=0,j=0,n=0;
  4007d0:	c6 45 f4 00          	movb   $0x0,-0xc(%rbp)
  4007d4:	c6 45 f5 00          	movb   $0x0,-0xb(%rbp)
  4007d8:	c6 45 f6 00          	movb   $0x0,-0xa(%rbp)
 uint8_t sign=0;
  4007dc:	c6 45 f7 00          	movb   $0x0,-0x9(%rbp)
 uint32_t b=1;
  4007e0:	c7 45 f8 01 00 00 00 	movl   $0x1,-0x8(%rbp)
 int32_t number=0;
  4007e7:	c7 45 fc 00 00 00 00 	movl   $0x0,-0x4(%rbp)
   if(*ptr==45)
  4007ee:	48 8b 45 e8          	mov    -0x18(%rbp),%rax
  4007f2:	0f b6 00             	movzbl (%rax),%eax
  4007f5:	3c 2d                	cmp    $0x2d,%al
  4007f7:	75 13                	jne    40080c <my_atoi+0x4c>
   {
   ptr++;
  4007f9:	48 83 45 e8 01       	addq   $0x1,-0x18(%rbp)
   sign=1;
  4007fe:	c6 45 f7 01          	movb   $0x1,-0x9(%rbp)
   digits--;
  400802:	0f b6 45 e4          	movzbl -0x1c(%rbp),%eax
  400806:	83 e8 01             	sub    $0x1,%eax
  400809:	88 45 e4             	mov    %al,-0x1c(%rbp)
   }
   for(i=digits-1;i!=0;i--)
  40080c:	0f b6 45 e4          	movzbl -0x1c(%rbp),%eax
  400810:	83 e8 01             	sub    $0x1,%eax
  400813:	88 45 f4             	mov    %al,-0xc(%rbp)
  400816:	eb 7f                	jmp    400897 <my_atoi+0xd7>
   {
     b=1;
  400818:	c7 45 f8 01 00 00 00 	movl   $0x1,-0x8(%rbp)
     if(*ptr>=65)
  40081f:	48 8b 45 e8          	mov    -0x18(%rbp),%rax
  400823:	0f b6 00             	movzbl (%rax),%eax
  400826:	3c 40                	cmp    $0x40,%al
  400828:	76 0f                	jbe    400839 <my_atoi+0x79>
      {
      n=*ptr-55;  // n is between A to F
  40082a:	48 8b 45 e8          	mov    -0x18(%rbp),%rax
  40082e:	0f b6 00             	movzbl (%rax),%eax
  400831:	83 e8 37             	sub    $0x37,%eax
  400834:	88 45 f6             	mov    %al,-0xa(%rbp)
  400837:	eb 0d                	jmp    400846 <my_atoi+0x86>
      }
     else
      {
      n=*ptr-48; // n is between 0 to 9   
  400839:	48 8b 45 e8          	mov    -0x18(%rbp),%rax
  40083d:	0f b6 00             	movzbl (%rax),%eax
  400840:	83 e8 30             	sub    $0x30,%eax
  400843:	88 45 f6             	mov    %al,-0xa(%rbp)
      } 
     for(j=i-1;j!=0;j--)
  400846:	0f b6 45 f4          	movzbl -0xc(%rbp),%eax
  40084a:	83 e8 01             	sub    $0x1,%eax
  40084d:	88 45 f5             	mov    %al,-0xb(%rbp)
  400850:	eb 14                	jmp    400866 <my_atoi+0xa6>
     {
     b=b*base;
  400852:	8b 45 f8             	mov    -0x8(%rbp),%eax
  400855:	0f af 45 e0          	imul   -0x20(%rbp),%eax
  400859:	89 45 f8             	mov    %eax,-0x8(%rbp)
      }
     else
      {
      n=*ptr-48; // n is between 0 to 9   
      } 
     for(j=i-1;j!=0;j--)
  40085c:	0f b6 45 f5          	movzbl -0xb(%rbp),%eax
  400860:	83 e8 01             	sub    $0x1,%eax
  400863:	88 45 f5             	mov    %al,-0xb(%rbp)
  400866:	80 7d f5 00          	cmpb   $0x0,-0xb(%rbp)
  40086a:	75 e6                	jne    400852 <my_atoi+0x92>
     {
     b=b*base;
     }
    number=(n*b)+number;
  40086c:	0f b6 45 f6          	movzbl -0xa(%rbp),%eax
  400870:	0f af 45 f8          	imul   -0x8(%rbp),%eax
  400874:	89 c2                	mov    %eax,%edx
  400876:	8b 45 fc             	mov    -0x4(%rbp),%eax
  400879:	01 d0                	add    %edx,%eax
  40087b:	89 45 fc             	mov    %eax,-0x4(%rbp)
    digits--;
  40087e:	0f b6 45 e4          	movzbl -0x1c(%rbp),%eax
  400882:	83 e8 01             	sub    $0x1,%eax
  400885:	88 45 e4             	mov    %al,-0x1c(%rbp)
    ptr++;
  400888:	48 83 45 e8 01       	addq   $0x1,-0x18(%rbp)
   {
   ptr++;
   sign=1;
   digits--;
   }
   for(i=digits-1;i!=0;i--)
  40088d:	0f b6 45 f4          	movzbl -0xc(%rbp),%eax
  400891:	83 e8 01             	sub    $0x1,%eax
  400894:	88 45 f4             	mov    %al,-0xc(%rbp)
  400897:	80 7d f4 00          	cmpb   $0x0,-0xc(%rbp)
  40089b:	0f 85 77 ff ff ff    	jne    400818 <my_atoi+0x58>
     }
    number=(n*b)+number;
    digits--;
    ptr++;
   }
   if(sign==1)
  4008a1:	80 7d f7 01          	cmpb   $0x1,-0x9(%rbp)
  4008a5:	75 03                	jne    4008aa <my_atoi+0xea>
   {
   number=-number;
  4008a7:	f7 5d fc             	negl   -0x4(%rbp)
   }
  return(number);
  4008aa:	8b 45 fc             	mov    -0x4(%rbp),%eax
}
  4008ad:	5d                   	pop    %rbp
  4008ae:	c3                   	retq   

00000000004008af <big_to_little32>:
 *          2nd argument :length of the data array,
 * @return - 0 for successful conversion , 1 for NULL pointer and 2 for an empty array 
 */
 
int8_t big_to_little32(uint32_t * data, uint32_t length)
{
  4008af:	55                   	push   %rbp
  4008b0:	48 89 e5             	mov    %rsp,%rbp
  4008b3:	48 89 7d e8          	mov    %rdi,-0x18(%rbp)
  4008b7:	89 75 e4             	mov    %esi,-0x1c(%rbp)
int8_t i=length-1;
  4008ba:	8b 45 e4             	mov    -0x1c(%rbp),%eax
  4008bd:	83 e8 01             	sub    $0x1,%eax
  4008c0:	88 45 fb             	mov    %al,-0x5(%rbp)
uint32_t t;
 if(data==NULL)
  4008c3:	48 83 7d e8 00       	cmpq   $0x0,-0x18(%rbp)
  4008c8:	75 07                	jne    4008d1 <big_to_little32+0x22>
 {
  return 1;
  4008ca:	b8 01 00 00 00       	mov    $0x1,%eax
  4008cf:	eb 69                	jmp    40093a <big_to_little32+0x8b>
 }
 if(*data=='\0')
  4008d1:	48 8b 45 e8          	mov    -0x18(%rbp),%rax
  4008d5:	8b 00                	mov    (%rax),%eax
  4008d7:	85 c0                	test   %eax,%eax
  4008d9:	75 54                	jne    40092f <big_to_little32+0x80>
 {
  return 2;
  4008db:	b8 02 00 00 00       	mov    $0x2,%eax
  4008e0:	eb 58                	jmp    40093a <big_to_little32+0x8b>
 }
 else
 {
  while(i>0)
  {
   t=*(data+i);
  4008e2:	48 0f be 45 fb       	movsbq -0x5(%rbp),%rax
  4008e7:	48 8d 14 85 00 00 00 	lea    0x0(,%rax,4),%rdx
  4008ee:	00 
  4008ef:	48 8b 45 e8          	mov    -0x18(%rbp),%rax
  4008f3:	48 01 d0             	add    %rdx,%rax
  4008f6:	8b 00                	mov    (%rax),%eax
  4008f8:	89 45 fc             	mov    %eax,-0x4(%rbp)
   *(data+i)=*data;
  4008fb:	48 0f be 45 fb       	movsbq -0x5(%rbp),%rax
  400900:	48 8d 14 85 00 00 00 	lea    0x0(,%rax,4),%rdx
  400907:	00 
  400908:	48 8b 45 e8          	mov    -0x18(%rbp),%rax
  40090c:	48 01 c2             	add    %rax,%rdx
  40090f:	48 8b 45 e8          	mov    -0x18(%rbp),%rax
  400913:	8b 00                	mov    (%rax),%eax
  400915:	89 02                	mov    %eax,(%rdx)
   *data =t;
  400917:	48 8b 45 e8          	mov    -0x18(%rbp),%rax
  40091b:	8b 55 fc             	mov    -0x4(%rbp),%edx
  40091e:	89 10                	mov    %edx,(%rax)
   data++;
  400920:	48 83 45 e8 04       	addq   $0x4,-0x18(%rbp)
   i=i-2;
  400925:	0f b6 45 fb          	movzbl -0x5(%rbp),%eax
  400929:	83 e8 02             	sub    $0x2,%eax
  40092c:	88 45 fb             	mov    %al,-0x5(%rbp)
 {
  return 2;
 }
 else
 {
  while(i>0)
  40092f:	80 7d fb 00          	cmpb   $0x0,-0x5(%rbp)
  400933:	7f ad                	jg     4008e2 <big_to_little32+0x33>
   *(data+i)=*data;
   *data =t;
   data++;
   i=i-2;
  }
 return 0;
  400935:	b8 00 00 00 00       	mov    $0x0,%eax
 }
}
  40093a:	5d                   	pop    %rbp
  40093b:	c3                   	retq   

000000000040093c <little_to_big32>:
 *          2nd argument :length of the data array,
 * @return - 0 for successful conversion , 1 for NULL pointer and 2 for an empty array 
 */

int8_t little_to_big32(uint32_t * data, uint32_t length)
{
  40093c:	55                   	push   %rbp
  40093d:	48 89 e5             	mov    %rsp,%rbp
  400940:	48 89 7d e8          	mov    %rdi,-0x18(%rbp)
  400944:	89 75 e4             	mov    %esi,-0x1c(%rbp)
int8_t i=length-1;
  400947:	8b 45 e4             	mov    -0x1c(%rbp),%eax
  40094a:	83 e8 01             	sub    $0x1,%eax
  40094d:	88 45 fb             	mov    %al,-0x5(%rbp)
uint32_t t;
 if(data==NULL)
  400950:	48 83 7d e8 00       	cmpq   $0x0,-0x18(%rbp)
  400955:	75 07                	jne    40095e <little_to_big32+0x22>
 {
  return 1;
  400957:	b8 01 00 00 00       	mov    $0x1,%eax
  40095c:	eb 69                	jmp    4009c7 <little_to_big32+0x8b>
 }
 if(*data=='\0')
  40095e:	48 8b 45 e8          	mov    -0x18(%rbp),%rax
  400962:	8b 00                	mov    (%rax),%eax
  400964:	85 c0                	test   %eax,%eax
  400966:	75 54                	jne    4009bc <little_to_big32+0x80>
 {
  return 2;
  400968:	b8 02 00 00 00       	mov    $0x2,%eax
  40096d:	eb 58                	jmp    4009c7 <little_to_big32+0x8b>
 }
 else
 {
  while(i>0)
  {
   t=*(data+i);
  40096f:	48 0f be 45 fb       	movsbq -0x5(%rbp),%rax
  400974:	48 8d 14 85 00 00 00 	lea    0x0(,%rax,4),%rdx
  40097b:	00 
  40097c:	48 8b 45 e8          	mov    -0x18(%rbp),%rax
  400980:	48 01 d0             	add    %rdx,%rax
  400983:	8b 00                	mov    (%rax),%eax
  400985:	89 45 fc             	mov    %eax,-0x4(%rbp)
   *(data+i)=*data;
  400988:	48 0f be 45 fb       	movsbq -0x5(%rbp),%rax
  40098d:	48 8d 14 85 00 00 00 	lea    0x0(,%rax,4),%rdx
  400994:	00 
  400995:	48 8b 45 e8          	mov    -0x18(%rbp),%rax
  400999:	48 01 c2             	add    %rax,%rdx
  40099c:	48 8b 45 e8          	mov    -0x18(%rbp),%rax
  4009a0:	8b 00                	mov    (%rax),%eax
  4009a2:	89 02                	mov    %eax,(%rdx)
   *data =t;
  4009a4:	48 8b 45 e8          	mov    -0x18(%rbp),%rax
  4009a8:	8b 55 fc             	mov    -0x4(%rbp),%edx
  4009ab:	89 10                	mov    %edx,(%rax)
   data++;
  4009ad:	48 83 45 e8 04       	addq   $0x4,-0x18(%rbp)
   i=i-2;
  4009b2:	0f b6 45 fb          	movzbl -0x5(%rbp),%eax
  4009b6:	83 e8 02             	sub    $0x2,%eax
  4009b9:	88 45 fb             	mov    %al,-0x5(%rbp)
 {
  return 2;
 }
 else
 {
  while(i>0)
  4009bc:	80 7d fb 00          	cmpb   $0x0,-0x5(%rbp)
  4009c0:	7f ad                	jg     40096f <little_to_big32+0x33>
   *(data+i)=*data;
   *data =t;
   data++;
   i=i-2;
  }
  return 0;
  4009c2:	b8 00 00 00 00       	mov    $0x0,%eax
 }
}
  4009c7:	5d                   	pop    %rbp
  4009c8:	c3                   	retq   

00000000004009c9 <test_data1>:
#include "memory.h"
#include "conversion.h"
#include "debug.h"
#include "project1.h"

int8_t test_data1() {
  4009c9:	55                   	push   %rbp
  4009ca:	48 89 e5             	mov    %rsp,%rbp
  4009cd:	48 83 ec 20          	sub    $0x20,%rsp
  uint8_t * ptr;
  int32_t num = -4096;
  4009d1:	c7 45 ec 00 f0 ff ff 	movl   $0xfffff000,-0x14(%rbp)
  uint32_t digits;
  int32_t value;

  printf("\ntest_data1();\n");
  4009d8:	bf 68 19 40 00       	mov    $0x401968,%edi
  4009dd:	e8 6e fb ff ff       	callq  400550 <puts@plt>
  ptr = (uint8_t*) reserve_words( DATA_SET_SIZE_W );
  4009e2:	bf 0a 00 00 00       	mov    $0xa,%edi
  4009e7:	e8 70 0e 00 00       	callq  40185c <reserve_words>
  4009ec:	48 89 45 f8          	mov    %rax,-0x8(%rbp)

  if (! ptr )
  4009f0:	48 83 7d f8 00       	cmpq   $0x0,-0x8(%rbp)
  4009f5:	75 07                	jne    4009fe <test_data1+0x35>
  {
    return TEST_ERROR;
  4009f7:	b8 01 00 00 00       	mov    $0x1,%eax
  4009fc:	eb 58                	jmp    400a56 <test_data1+0x8d>
  }

  digits = my_itoa( num, ptr, BASE_16);   
  4009fe:	48 8b 4d f8          	mov    -0x8(%rbp),%rcx
  400a02:	8b 45 ec             	mov    -0x14(%rbp),%eax
  400a05:	ba 10 00 00 00       	mov    $0x10,%edx
  400a0a:	48 89 ce             	mov    %rcx,%rsi
  400a0d:	89 c7                	mov    %eax,%edi
  400a0f:	e8 a2 fc ff ff       	callq  4006b6 <my_itoa>
  400a14:	0f b6 c0             	movzbl %al,%eax
  400a17:	89 45 f0             	mov    %eax,-0x10(%rbp)
  value = my_atoi( ptr, digits, BASE_16);
  400a1a:	8b 45 f0             	mov    -0x10(%rbp),%eax
  400a1d:	0f b6 c8             	movzbl %al,%ecx
  400a20:	48 8b 45 f8          	mov    -0x8(%rbp),%rax
  400a24:	ba 10 00 00 00       	mov    $0x10,%edx
  400a29:	89 ce                	mov    %ecx,%esi
  400a2b:	48 89 c7             	mov    %rax,%rdi
  400a2e:	e8 8d fd ff ff       	callq  4007c0 <my_atoi>
  400a33:	89 45 f4             	mov    %eax,-0xc(%rbp)
  #ifdef VERBOSE
  printf("  Initial number: %d\n", num);  
  printf("  Final Decimal number: %d\n", value);  
  #endif
  free_words( (uint32_t*)ptr );
  400a36:	48 8b 45 f8          	mov    -0x8(%rbp),%rax
  400a3a:	48 89 c7             	mov    %rax,%rdi
  400a3d:	e8 5d 0e 00 00       	callq  40189f <free_words>

  if ( value != num )
  400a42:	8b 45 f4             	mov    -0xc(%rbp),%eax
  400a45:	3b 45 ec             	cmp    -0x14(%rbp),%eax
  400a48:	74 07                	je     400a51 <test_data1+0x88>
  {
    return TEST_ERROR;
  400a4a:	b8 01 00 00 00       	mov    $0x1,%eax
  400a4f:	eb 05                	jmp    400a56 <test_data1+0x8d>
  }
  return TEST_NO_ERROR;
  400a51:	b8 00 00 00 00       	mov    $0x0,%eax
}
  400a56:	c9                   	leaveq 
  400a57:	c3                   	retq   

0000000000400a58 <test_data2>:

int8_t test_data2() {
  400a58:	55                   	push   %rbp
  400a59:	48 89 e5             	mov    %rsp,%rbp
  400a5c:	48 83 ec 20          	sub    $0x20,%rsp
  uint8_t * ptr;
  int32_t num = 123456;
  400a60:	c7 45 ec 40 e2 01 00 	movl   $0x1e240,-0x14(%rbp)
  uint32_t digits;
  int32_t value;

  printf("test_data2();\n");
  400a67:	bf 77 19 40 00       	mov    $0x401977,%edi
  400a6c:	e8 df fa ff ff       	callq  400550 <puts@plt>
  ptr = (uint8_t*) reserve_words( DATA_SET_SIZE_W );
  400a71:	bf 0a 00 00 00       	mov    $0xa,%edi
  400a76:	e8 e1 0d 00 00       	callq  40185c <reserve_words>
  400a7b:	48 89 45 f8          	mov    %rax,-0x8(%rbp)

  if (! ptr )
  400a7f:	48 83 7d f8 00       	cmpq   $0x0,-0x8(%rbp)
  400a84:	75 07                	jne    400a8d <test_data2+0x35>
  {
    return TEST_ERROR;
  400a86:	b8 01 00 00 00       	mov    $0x1,%eax
  400a8b:	eb 58                	jmp    400ae5 <test_data2+0x8d>
  }

  digits = my_itoa( num, ptr, BASE_10);
  400a8d:	48 8b 4d f8          	mov    -0x8(%rbp),%rcx
  400a91:	8b 45 ec             	mov    -0x14(%rbp),%eax
  400a94:	ba 0a 00 00 00       	mov    $0xa,%edx
  400a99:	48 89 ce             	mov    %rcx,%rsi
  400a9c:	89 c7                	mov    %eax,%edi
  400a9e:	e8 13 fc ff ff       	callq  4006b6 <my_itoa>
  400aa3:	0f b6 c0             	movzbl %al,%eax
  400aa6:	89 45 f0             	mov    %eax,-0x10(%rbp)
  value = my_atoi( ptr, digits, BASE_10);
  400aa9:	8b 45 f0             	mov    -0x10(%rbp),%eax
  400aac:	0f b6 c8             	movzbl %al,%ecx
  400aaf:	48 8b 45 f8          	mov    -0x8(%rbp),%rax
  400ab3:	ba 0a 00 00 00       	mov    $0xa,%edx
  400ab8:	89 ce                	mov    %ecx,%esi
  400aba:	48 89 c7             	mov    %rax,%rdi
  400abd:	e8 fe fc ff ff       	callq  4007c0 <my_atoi>
  400ac2:	89 45 f4             	mov    %eax,-0xc(%rbp)
  #ifdef VERBOSE
  printf("  Initial Decimal number: %d\n", num);  
  printf("  Final Decimal number: %d\n", value);  
  #endif
  free_words( (uint32_t*)ptr );
  400ac5:	48 8b 45 f8          	mov    -0x8(%rbp),%rax
  400ac9:	48 89 c7             	mov    %rax,%rdi
  400acc:	e8 ce 0d 00 00       	callq  40189f <free_words>

  if ( value != num )
  400ad1:	8b 45 f4             	mov    -0xc(%rbp),%eax
  400ad4:	3b 45 ec             	cmp    -0x14(%rbp),%eax
  400ad7:	74 07                	je     400ae0 <test_data2+0x88>
  {
    return TEST_ERROR;
  400ad9:	b8 01 00 00 00       	mov    $0x1,%eax
  400ade:	eb 05                	jmp    400ae5 <test_data2+0x8d>
  }
  return TEST_NO_ERROR;
  400ae0:	b8 00 00 00 00       	mov    $0x0,%eax
}
  400ae5:	c9                   	leaveq 
  400ae6:	c3                   	retq   

0000000000400ae7 <test_memmove1>:

int8_t test_memmove1() {
  400ae7:	55                   	push   %rbp
  400ae8:	48 89 e5             	mov    %rsp,%rbp
  400aeb:	48 83 ec 20          	sub    $0x20,%rsp
  uint8_t i;
  int8_t ret = TEST_NO_ERROR;
  400aef:	c6 45 e7 00          	movb   $0x0,-0x19(%rbp)
  uint8_t * set;
  uint8_t * ptra;
  uint8_t * ptrb;

  printf("test_memmove1() - NO OVERLAP\n");
  400af3:	bf 85 19 40 00       	mov    $0x401985,%edi
  400af8:	e8 53 fa ff ff       	callq  400550 <puts@plt>
  set = (uint8_t*) reserve_words( MEM_SET_SIZE_W );
  400afd:	bf 08 00 00 00       	mov    $0x8,%edi
  400b02:	e8 55 0d 00 00       	callq  40185c <reserve_words>
  400b07:	48 89 45 e8          	mov    %rax,-0x18(%rbp)

  if (! set ) 
  400b0b:	48 83 7d e8 00       	cmpq   $0x0,-0x18(%rbp)
  400b10:	75 0a                	jne    400b1c <test_memmove1+0x35>
  {
    return TEST_ERROR;
  400b12:	b8 01 00 00 00       	mov    $0x1,%eax
  400b17:	e9 b6 00 00 00       	jmpq   400bd2 <test_memmove1+0xeb>
  }
  
  ptra = &set[0];
  400b1c:	48 8b 45 e8          	mov    -0x18(%rbp),%rax
  400b20:	48 89 45 f0          	mov    %rax,-0x10(%rbp)
  ptrb = &set[16];
  400b24:	48 8b 45 e8          	mov    -0x18(%rbp),%rax
  400b28:	48 83 c0 10          	add    $0x10,%rax
  400b2c:	48 89 45 f8          	mov    %rax,-0x8(%rbp)
  
  /* Initialize the set to test values */
  for( i = 0; i < MEM_SET_SIZE_B; i++)
  400b30:	c6 45 e6 00          	movb   $0x0,-0x1a(%rbp)
  400b34:	eb 1b                	jmp    400b51 <test_memmove1+0x6a>
  {
    set[i] = i;
  400b36:	0f b6 55 e6          	movzbl -0x1a(%rbp),%edx
  400b3a:	48 8b 45 e8          	mov    -0x18(%rbp),%rax
  400b3e:	48 01 c2             	add    %rax,%rdx
  400b41:	0f b6 45 e6          	movzbl -0x1a(%rbp),%eax
  400b45:	88 02                	mov    %al,(%rdx)
  
  ptra = &set[0];
  ptrb = &set[16];
  
  /* Initialize the set to test values */
  for( i = 0; i < MEM_SET_SIZE_B; i++)
  400b47:	0f b6 45 e6          	movzbl -0x1a(%rbp),%eax
  400b4b:	83 c0 01             	add    $0x1,%eax
  400b4e:	88 45 e6             	mov    %al,-0x1a(%rbp)
  400b51:	80 7d e6 1f          	cmpb   $0x1f,-0x1a(%rbp)
  400b55:	76 df                	jbe    400b36 <test_memmove1+0x4f>
  {
    set[i] = i;
  }

  print_memory(set, MEM_SET_SIZE_B);
  400b57:	48 8b 45 e8          	mov    -0x18(%rbp),%rax
  400b5b:	be 20 00 00 00       	mov    $0x20,%esi
  400b60:	48 89 c7             	mov    %rax,%rdi
  400b63:	e8 2b 0a 00 00       	callq  401593 <print_memory>
  my_memmove(ptra, ptrb, TEST_MEMMOVE_LENGTH);
  400b68:	48 8b 4d f8          	mov    -0x8(%rbp),%rcx
  400b6c:	48 8b 45 f0          	mov    -0x10(%rbp),%rax
  400b70:	ba 10 00 00 00       	mov    $0x10,%edx
  400b75:	48 89 ce             	mov    %rcx,%rsi
  400b78:	48 89 c7             	mov    %rax,%rdi
  400b7b:	e8 21 0a 00 00       	callq  4015a1 <my_memmove>
  print_memory(set, MEM_SET_SIZE_B);
  400b80:	48 8b 45 e8          	mov    -0x18(%rbp),%rax
  400b84:	be 20 00 00 00       	mov    $0x20,%esi
  400b89:	48 89 c7             	mov    %rax,%rdi
  400b8c:	e8 02 0a 00 00       	callq  401593 <print_memory>

  for (i = 0; i < TEST_MEMMOVE_LENGTH; i++)
  400b91:	c6 45 e6 00          	movb   $0x0,-0x1a(%rbp)
  400b95:	eb 25                	jmp    400bbc <test_memmove1+0xd5>
  {
    if (set[i + 16] != i)
  400b97:	0f b6 45 e6          	movzbl -0x1a(%rbp),%eax
  400b9b:	48 8d 50 10          	lea    0x10(%rax),%rdx
  400b9f:	48 8b 45 e8          	mov    -0x18(%rbp),%rax
  400ba3:	48 01 d0             	add    %rdx,%rax
  400ba6:	0f b6 00             	movzbl (%rax),%eax
  400ba9:	3a 45 e6             	cmp    -0x1a(%rbp),%al
  400bac:	74 04                	je     400bb2 <test_memmove1+0xcb>
    {
      ret = TEST_ERROR;
  400bae:	c6 45 e7 01          	movb   $0x1,-0x19(%rbp)

  print_memory(set, MEM_SET_SIZE_B);
  my_memmove(ptra, ptrb, TEST_MEMMOVE_LENGTH);
  print_memory(set, MEM_SET_SIZE_B);

  for (i = 0; i < TEST_MEMMOVE_LENGTH; i++)
  400bb2:	0f b6 45 e6          	movzbl -0x1a(%rbp),%eax
  400bb6:	83 c0 01             	add    $0x1,%eax
  400bb9:	88 45 e6             	mov    %al,-0x1a(%rbp)
  400bbc:	80 7d e6 0f          	cmpb   $0xf,-0x1a(%rbp)
  400bc0:	76 d5                	jbe    400b97 <test_memmove1+0xb0>
    {
      ret = TEST_ERROR;
    }
  }

  free_words( (uint32_t*)set );
  400bc2:	48 8b 45 e8          	mov    -0x18(%rbp),%rax
  400bc6:	48 89 c7             	mov    %rax,%rdi
  400bc9:	e8 d1 0c 00 00       	callq  40189f <free_words>
  return ret;
  400bce:	0f b6 45 e7          	movzbl -0x19(%rbp),%eax
}
  400bd2:	c9                   	leaveq 
  400bd3:	c3                   	retq   

0000000000400bd4 <test_memmove2>:

int8_t test_memmove2() {
  400bd4:	55                   	push   %rbp
  400bd5:	48 89 e5             	mov    %rsp,%rbp
  400bd8:	48 83 ec 20          	sub    $0x20,%rsp
  uint8_t i;
  int8_t ret = TEST_NO_ERROR;
  400bdc:	c6 45 e7 00          	movb   $0x0,-0x19(%rbp)
  uint8_t * set;
  uint8_t * ptra;
  uint8_t * ptrb;

  printf("test_memmove2() -OVERLAP END OF SRC BEGINNING OF DST\n");
  400be0:	bf a8 19 40 00       	mov    $0x4019a8,%edi
  400be5:	e8 66 f9 ff ff       	callq  400550 <puts@plt>
  set = (uint8_t*) reserve_words(MEM_SET_SIZE_W);
  400bea:	bf 08 00 00 00       	mov    $0x8,%edi
  400bef:	e8 68 0c 00 00       	callq  40185c <reserve_words>
  400bf4:	48 89 45 e8          	mov    %rax,-0x18(%rbp)

  if (! set )
  400bf8:	48 83 7d e8 00       	cmpq   $0x0,-0x18(%rbp)
  400bfd:	75 0a                	jne    400c09 <test_memmove2+0x35>
  {
    return TEST_ERROR;
  400bff:	b8 01 00 00 00       	mov    $0x1,%eax
  400c04:	e9 b6 00 00 00       	jmpq   400cbf <test_memmove2+0xeb>
  }
  ptra = &set[0];
  400c09:	48 8b 45 e8          	mov    -0x18(%rbp),%rax
  400c0d:	48 89 45 f0          	mov    %rax,-0x10(%rbp)
  ptrb = &set[8];
  400c11:	48 8b 45 e8          	mov    -0x18(%rbp),%rax
  400c15:	48 83 c0 08          	add    $0x8,%rax
  400c19:	48 89 45 f8          	mov    %rax,-0x8(%rbp)

  /* Initialize the set to test values */
  for( i = 0; i < MEM_SET_SIZE_B; i++) {
  400c1d:	c6 45 e6 00          	movb   $0x0,-0x1a(%rbp)
  400c21:	eb 1b                	jmp    400c3e <test_memmove2+0x6a>
    set[i] = i;
  400c23:	0f b6 55 e6          	movzbl -0x1a(%rbp),%edx
  400c27:	48 8b 45 e8          	mov    -0x18(%rbp),%rax
  400c2b:	48 01 c2             	add    %rax,%rdx
  400c2e:	0f b6 45 e6          	movzbl -0x1a(%rbp),%eax
  400c32:	88 02                	mov    %al,(%rdx)
  }
  ptra = &set[0];
  ptrb = &set[8];

  /* Initialize the set to test values */
  for( i = 0; i < MEM_SET_SIZE_B; i++) {
  400c34:	0f b6 45 e6          	movzbl -0x1a(%rbp),%eax
  400c38:	83 c0 01             	add    $0x1,%eax
  400c3b:	88 45 e6             	mov    %al,-0x1a(%rbp)
  400c3e:	80 7d e6 1f          	cmpb   $0x1f,-0x1a(%rbp)
  400c42:	76 df                	jbe    400c23 <test_memmove2+0x4f>
    set[i] = i;
  }

  print_memory(set, MEM_SET_SIZE_B);
  400c44:	48 8b 45 e8          	mov    -0x18(%rbp),%rax
  400c48:	be 20 00 00 00       	mov    $0x20,%esi
  400c4d:	48 89 c7             	mov    %rax,%rdi
  400c50:	e8 3e 09 00 00       	callq  401593 <print_memory>
  my_memmove(ptra, ptrb, TEST_MEMMOVE_LENGTH);
  400c55:	48 8b 4d f8          	mov    -0x8(%rbp),%rcx
  400c59:	48 8b 45 f0          	mov    -0x10(%rbp),%rax
  400c5d:	ba 10 00 00 00       	mov    $0x10,%edx
  400c62:	48 89 ce             	mov    %rcx,%rsi
  400c65:	48 89 c7             	mov    %rax,%rdi
  400c68:	e8 34 09 00 00       	callq  4015a1 <my_memmove>
  print_memory(set, MEM_SET_SIZE_B);
  400c6d:	48 8b 45 e8          	mov    -0x18(%rbp),%rax
  400c71:	be 20 00 00 00       	mov    $0x20,%esi
  400c76:	48 89 c7             	mov    %rax,%rdi
  400c79:	e8 15 09 00 00       	callq  401593 <print_memory>

  for (i = 0; i < TEST_MEMMOVE_LENGTH; i++)
  400c7e:	c6 45 e6 00          	movb   $0x0,-0x1a(%rbp)
  400c82:	eb 25                	jmp    400ca9 <test_memmove2+0xd5>
  {
    if (set[i + 8] != i)
  400c84:	0f b6 45 e6          	movzbl -0x1a(%rbp),%eax
  400c88:	48 8d 50 08          	lea    0x8(%rax),%rdx
  400c8c:	48 8b 45 e8          	mov    -0x18(%rbp),%rax
  400c90:	48 01 d0             	add    %rdx,%rax
  400c93:	0f b6 00             	movzbl (%rax),%eax
  400c96:	3a 45 e6             	cmp    -0x1a(%rbp),%al
  400c99:	74 04                	je     400c9f <test_memmove2+0xcb>
    {
      ret = TEST_ERROR;
  400c9b:	c6 45 e7 01          	movb   $0x1,-0x19(%rbp)

  print_memory(set, MEM_SET_SIZE_B);
  my_memmove(ptra, ptrb, TEST_MEMMOVE_LENGTH);
  print_memory(set, MEM_SET_SIZE_B);

  for (i = 0; i < TEST_MEMMOVE_LENGTH; i++)
  400c9f:	0f b6 45 e6          	movzbl -0x1a(%rbp),%eax
  400ca3:	83 c0 01             	add    $0x1,%eax
  400ca6:	88 45 e6             	mov    %al,-0x1a(%rbp)
  400ca9:	80 7d e6 0f          	cmpb   $0xf,-0x1a(%rbp)
  400cad:	76 d5                	jbe    400c84 <test_memmove2+0xb0>
    {
      ret = TEST_ERROR;
    }
  }

  free_words( (uint32_t*)set );
  400caf:	48 8b 45 e8          	mov    -0x18(%rbp),%rax
  400cb3:	48 89 c7             	mov    %rax,%rdi
  400cb6:	e8 e4 0b 00 00       	callq  40189f <free_words>
  return ret;
  400cbb:	0f b6 45 e7          	movzbl -0x19(%rbp),%eax
}
  400cbf:	c9                   	leaveq 
  400cc0:	c3                   	retq   

0000000000400cc1 <test_memmove3>:

int8_t test_memmove3() {
  400cc1:	55                   	push   %rbp
  400cc2:	48 89 e5             	mov    %rsp,%rbp
  400cc5:	48 83 ec 20          	sub    $0x20,%rsp
  uint8_t i;
  int8_t ret = TEST_NO_ERROR;
  400cc9:	c6 45 e7 00          	movb   $0x0,-0x19(%rbp)
  uint8_t * set;
  uint8_t * ptra;
  uint8_t * ptrb;

  printf("test_memove3() - OVERLAP END OF DEST BEGINNING OF SRC\n");
  400ccd:	bf e0 19 40 00       	mov    $0x4019e0,%edi
  400cd2:	e8 79 f8 ff ff       	callq  400550 <puts@plt>
  set = (uint8_t*)reserve_words( MEM_SET_SIZE_W);
  400cd7:	bf 08 00 00 00       	mov    $0x8,%edi
  400cdc:	e8 7b 0b 00 00       	callq  40185c <reserve_words>
  400ce1:	48 89 45 e8          	mov    %rax,-0x18(%rbp)

  if (! set ) 
  400ce5:	48 83 7d e8 00       	cmpq   $0x0,-0x18(%rbp)
  400cea:	75 0a                	jne    400cf6 <test_memmove3+0x35>
  {
    return TEST_ERROR;
  400cec:	b8 01 00 00 00       	mov    $0x1,%eax
  400cf1:	e9 bb 00 00 00       	jmpq   400db1 <test_memmove3+0xf0>
  }
  ptra = &set[8];
  400cf6:	48 8b 45 e8          	mov    -0x18(%rbp),%rax
  400cfa:	48 83 c0 08          	add    $0x8,%rax
  400cfe:	48 89 45 f0          	mov    %rax,-0x10(%rbp)
  ptrb = &set[0];
  400d02:	48 8b 45 e8          	mov    -0x18(%rbp),%rax
  400d06:	48 89 45 f8          	mov    %rax,-0x8(%rbp)

  /* Initialize the set to test values */
  for( i = 0; i < MEM_SET_SIZE_B; i++)
  400d0a:	c6 45 e6 00          	movb   $0x0,-0x1a(%rbp)
  400d0e:	eb 1b                	jmp    400d2b <test_memmove3+0x6a>
  {
    set[i] = i;
  400d10:	0f b6 55 e6          	movzbl -0x1a(%rbp),%edx
  400d14:	48 8b 45 e8          	mov    -0x18(%rbp),%rax
  400d18:	48 01 c2             	add    %rax,%rdx
  400d1b:	0f b6 45 e6          	movzbl -0x1a(%rbp),%eax
  400d1f:	88 02                	mov    %al,(%rdx)
  }
  ptra = &set[8];
  ptrb = &set[0];

  /* Initialize the set to test values */
  for( i = 0; i < MEM_SET_SIZE_B; i++)
  400d21:	0f b6 45 e6          	movzbl -0x1a(%rbp),%eax
  400d25:	83 c0 01             	add    $0x1,%eax
  400d28:	88 45 e6             	mov    %al,-0x1a(%rbp)
  400d2b:	80 7d e6 1f          	cmpb   $0x1f,-0x1a(%rbp)
  400d2f:	76 df                	jbe    400d10 <test_memmove3+0x4f>
  {
    set[i] = i;
  }

  print_memory(set, MEM_SET_SIZE_B);
  400d31:	48 8b 45 e8          	mov    -0x18(%rbp),%rax
  400d35:	be 20 00 00 00       	mov    $0x20,%esi
  400d3a:	48 89 c7             	mov    %rax,%rdi
  400d3d:	e8 51 08 00 00       	callq  401593 <print_memory>
  my_memmove(ptra, ptrb, TEST_MEMMOVE_LENGTH);
  400d42:	48 8b 4d f8          	mov    -0x8(%rbp),%rcx
  400d46:	48 8b 45 f0          	mov    -0x10(%rbp),%rax
  400d4a:	ba 10 00 00 00       	mov    $0x10,%edx
  400d4f:	48 89 ce             	mov    %rcx,%rsi
  400d52:	48 89 c7             	mov    %rax,%rdi
  400d55:	e8 47 08 00 00       	callq  4015a1 <my_memmove>
  print_memory(set, MEM_SET_SIZE_B);
  400d5a:	48 8b 45 e8          	mov    -0x18(%rbp),%rax
  400d5e:	be 20 00 00 00       	mov    $0x20,%esi
  400d63:	48 89 c7             	mov    %rax,%rdi
  400d66:	e8 28 08 00 00       	callq  401593 <print_memory>

  for (i = 0; i < TEST_MEMMOVE_LENGTH; i++)
  400d6b:	c6 45 e6 00          	movb   $0x0,-0x1a(%rbp)
  400d6f:	eb 2a                	jmp    400d9b <test_memmove3+0xda>
  {
    if (set[i] != (i + 8))
  400d71:	0f b6 55 e6          	movzbl -0x1a(%rbp),%edx
  400d75:	48 8b 45 e8          	mov    -0x18(%rbp),%rax
  400d79:	48 01 d0             	add    %rdx,%rax
  400d7c:	0f b6 00             	movzbl (%rax),%eax
  400d7f:	0f b6 c0             	movzbl %al,%eax
  400d82:	0f b6 55 e6          	movzbl -0x1a(%rbp),%edx
  400d86:	83 c2 08             	add    $0x8,%edx
  400d89:	39 d0                	cmp    %edx,%eax
  400d8b:	74 04                	je     400d91 <test_memmove3+0xd0>
    {
      ret = TEST_ERROR;
  400d8d:	c6 45 e7 01          	movb   $0x1,-0x19(%rbp)

  print_memory(set, MEM_SET_SIZE_B);
  my_memmove(ptra, ptrb, TEST_MEMMOVE_LENGTH);
  print_memory(set, MEM_SET_SIZE_B);

  for (i = 0; i < TEST_MEMMOVE_LENGTH; i++)
  400d91:	0f b6 45 e6          	movzbl -0x1a(%rbp),%eax
  400d95:	83 c0 01             	add    $0x1,%eax
  400d98:	88 45 e6             	mov    %al,-0x1a(%rbp)
  400d9b:	80 7d e6 0f          	cmpb   $0xf,-0x1a(%rbp)
  400d9f:	76 d0                	jbe    400d71 <test_memmove3+0xb0>
      ret = TEST_ERROR;
    }
  }


  free_words( (uint32_t*)set );
  400da1:	48 8b 45 e8          	mov    -0x18(%rbp),%rax
  400da5:	48 89 c7             	mov    %rax,%rdi
  400da8:	e8 f2 0a 00 00       	callq  40189f <free_words>
  return ret;
  400dad:	0f b6 45 e7          	movzbl -0x19(%rbp),%eax

}
  400db1:	c9                   	leaveq 
  400db2:	c3                   	retq   

0000000000400db3 <test_memcpy>:

int8_t test_memcpy() {
  400db3:	55                   	push   %rbp
  400db4:	48 89 e5             	mov    %rsp,%rbp
  400db7:	48 83 ec 20          	sub    $0x20,%rsp
  uint8_t i;
  int8_t ret = TEST_NO_ERROR;
  400dbb:	c6 45 e7 00          	movb   $0x0,-0x19(%rbp)
  uint8_t * set;
  uint8_t * ptra;
  uint8_t * ptrb;

  printf("test_memcpy()\n");
  400dbf:	bf 16 1a 40 00       	mov    $0x401a16,%edi
  400dc4:	e8 87 f7 ff ff       	callq  400550 <puts@plt>
  set = (uint8_t*) reserve_words(MEM_SET_SIZE_W);
  400dc9:	bf 08 00 00 00       	mov    $0x8,%edi
  400dce:	e8 89 0a 00 00       	callq  40185c <reserve_words>
  400dd3:	48 89 45 e8          	mov    %rax,-0x18(%rbp)

  if (! set ) 
  400dd7:	48 83 7d e8 00       	cmpq   $0x0,-0x18(%rbp)
  400ddc:	75 0a                	jne    400de8 <test_memcpy+0x35>
  {
    return TEST_ERROR;
  400dde:	b8 01 00 00 00       	mov    $0x1,%eax
  400de3:	e9 b6 00 00 00       	jmpq   400e9e <test_memcpy+0xeb>
  }
  ptra = &set[0];
  400de8:	48 8b 45 e8          	mov    -0x18(%rbp),%rax
  400dec:	48 89 45 f0          	mov    %rax,-0x10(%rbp)
  ptrb = &set[16];
  400df0:	48 8b 45 e8          	mov    -0x18(%rbp),%rax
  400df4:	48 83 c0 10          	add    $0x10,%rax
  400df8:	48 89 45 f8          	mov    %rax,-0x8(%rbp)

  /* Initialize the set to test values */
  for( i = 0; i < MEM_SET_SIZE_B; i++) {
  400dfc:	c6 45 e6 00          	movb   $0x0,-0x1a(%rbp)
  400e00:	eb 1b                	jmp    400e1d <test_memcpy+0x6a>
    set[i] = i;
  400e02:	0f b6 55 e6          	movzbl -0x1a(%rbp),%edx
  400e06:	48 8b 45 e8          	mov    -0x18(%rbp),%rax
  400e0a:	48 01 c2             	add    %rax,%rdx
  400e0d:	0f b6 45 e6          	movzbl -0x1a(%rbp),%eax
  400e11:	88 02                	mov    %al,(%rdx)
  }
  ptra = &set[0];
  ptrb = &set[16];

  /* Initialize the set to test values */
  for( i = 0; i < MEM_SET_SIZE_B; i++) {
  400e13:	0f b6 45 e6          	movzbl -0x1a(%rbp),%eax
  400e17:	83 c0 01             	add    $0x1,%eax
  400e1a:	88 45 e6             	mov    %al,-0x1a(%rbp)
  400e1d:	80 7d e6 1f          	cmpb   $0x1f,-0x1a(%rbp)
  400e21:	76 df                	jbe    400e02 <test_memcpy+0x4f>
    set[i] = i;
  }

  print_memory(set, MEM_SET_SIZE_B);
  400e23:	48 8b 45 e8          	mov    -0x18(%rbp),%rax
  400e27:	be 20 00 00 00       	mov    $0x20,%esi
  400e2c:	48 89 c7             	mov    %rax,%rdi
  400e2f:	e8 5f 07 00 00       	callq  401593 <print_memory>
  my_memcpy(ptra, ptrb, TEST_MEMMOVE_LENGTH);
  400e34:	48 8b 4d f8          	mov    -0x8(%rbp),%rcx
  400e38:	48 8b 45 f0          	mov    -0x10(%rbp),%rax
  400e3c:	ba 10 00 00 00       	mov    $0x10,%edx
  400e41:	48 89 ce             	mov    %rcx,%rsi
  400e44:	48 89 c7             	mov    %rax,%rdi
  400e47:	e8 5c 08 00 00       	callq  4016a8 <my_memcpy>
  print_memory(set, MEM_SET_SIZE_B);
  400e4c:	48 8b 45 e8          	mov    -0x18(%rbp),%rax
  400e50:	be 20 00 00 00       	mov    $0x20,%esi
  400e55:	48 89 c7             	mov    %rax,%rdi
  400e58:	e8 36 07 00 00       	callq  401593 <print_memory>

  for (i = 0; i < TEST_MEMMOVE_LENGTH; i++)
  400e5d:	c6 45 e6 00          	movb   $0x0,-0x1a(%rbp)
  400e61:	eb 25                	jmp    400e88 <test_memcpy+0xd5>
  {
    if (set[i+16] != i)
  400e63:	0f b6 45 e6          	movzbl -0x1a(%rbp),%eax
  400e67:	48 8d 50 10          	lea    0x10(%rax),%rdx
  400e6b:	48 8b 45 e8          	mov    -0x18(%rbp),%rax
  400e6f:	48 01 d0             	add    %rdx,%rax
  400e72:	0f b6 00             	movzbl (%rax),%eax
  400e75:	3a 45 e6             	cmp    -0x1a(%rbp),%al
  400e78:	74 04                	je     400e7e <test_memcpy+0xcb>
    {
      ret = TEST_ERROR;
  400e7a:	c6 45 e7 01          	movb   $0x1,-0x19(%rbp)

  print_memory(set, MEM_SET_SIZE_B);
  my_memcpy(ptra, ptrb, TEST_MEMMOVE_LENGTH);
  print_memory(set, MEM_SET_SIZE_B);

  for (i = 0; i < TEST_MEMMOVE_LENGTH; i++)
  400e7e:	0f b6 45 e6          	movzbl -0x1a(%rbp),%eax
  400e82:	83 c0 01             	add    $0x1,%eax
  400e85:	88 45 e6             	mov    %al,-0x1a(%rbp)
  400e88:	80 7d e6 0f          	cmpb   $0xf,-0x1a(%rbp)
  400e8c:	76 d5                	jbe    400e63 <test_memcpy+0xb0>
    {
      ret = TEST_ERROR;
    }
  }

  free_words( (uint32_t*)set );
  400e8e:	48 8b 45 e8          	mov    -0x18(%rbp),%rax
  400e92:	48 89 c7             	mov    %rax,%rdi
  400e95:	e8 05 0a 00 00       	callq  40189f <free_words>
  return ret;
  400e9a:	0f b6 45 e7          	movzbl -0x19(%rbp),%eax
}
  400e9e:	c9                   	leaveq 
  400e9f:	c3                   	retq   

0000000000400ea0 <test_memset>:

int8_t test_memset() 
{
  400ea0:	55                   	push   %rbp
  400ea1:	48 89 e5             	mov    %rsp,%rbp
  400ea4:	48 83 ec 20          	sub    $0x20,%rsp
  uint8_t i;
  uint8_t ret = TEST_NO_ERROR;
  400ea8:	c6 45 e7 00          	movb   $0x0,-0x19(%rbp)
  uint8_t * set;
  uint8_t * ptra;
  uint8_t * ptrb;

  printf("test_memset()\n");
  400eac:	bf 24 1a 40 00       	mov    $0x401a24,%edi
  400eb1:	e8 9a f6 ff ff       	callq  400550 <puts@plt>
  set = (uint8_t*)reserve_words(MEM_SET_SIZE_W);
  400eb6:	bf 08 00 00 00       	mov    $0x8,%edi
  400ebb:	e8 9c 09 00 00       	callq  40185c <reserve_words>
  400ec0:	48 89 45 e8          	mov    %rax,-0x18(%rbp)
  if (! set )
  400ec4:	48 83 7d e8 00       	cmpq   $0x0,-0x18(%rbp)
  400ec9:	75 0a                	jne    400ed5 <test_memset+0x35>
  {
    return TEST_ERROR;
  400ecb:	b8 01 00 00 00       	mov    $0x1,%eax
  400ed0:	e9 ed 00 00 00       	jmpq   400fc2 <test_memset+0x122>
  }
  ptra = &set[0];
  400ed5:	48 8b 45 e8          	mov    -0x18(%rbp),%rax
  400ed9:	48 89 45 f0          	mov    %rax,-0x10(%rbp)
  ptrb = &set[16];
  400edd:	48 8b 45 e8          	mov    -0x18(%rbp),%rax
  400ee1:	48 83 c0 10          	add    $0x10,%rax
  400ee5:	48 89 45 f8          	mov    %rax,-0x8(%rbp)

  /* Initialize the set to test values */
  for( i = 0; i < MEM_SET_SIZE_B; i++) 
  400ee9:	c6 45 e6 00          	movb   $0x0,-0x1a(%rbp)
  400eed:	eb 1b                	jmp    400f0a <test_memset+0x6a>
  {
    set[i] = i;
  400eef:	0f b6 55 e6          	movzbl -0x1a(%rbp),%edx
  400ef3:	48 8b 45 e8          	mov    -0x18(%rbp),%rax
  400ef7:	48 01 c2             	add    %rax,%rdx
  400efa:	0f b6 45 e6          	movzbl -0x1a(%rbp),%eax
  400efe:	88 02                	mov    %al,(%rdx)
  }
  ptra = &set[0];
  ptrb = &set[16];

  /* Initialize the set to test values */
  for( i = 0; i < MEM_SET_SIZE_B; i++) 
  400f00:	0f b6 45 e6          	movzbl -0x1a(%rbp),%eax
  400f04:	83 c0 01             	add    $0x1,%eax
  400f07:	88 45 e6             	mov    %al,-0x1a(%rbp)
  400f0a:	80 7d e6 1f          	cmpb   $0x1f,-0x1a(%rbp)
  400f0e:	76 df                	jbe    400eef <test_memset+0x4f>
  {
    set[i] = i;
  }

  print_memory(set, MEM_SET_SIZE_B);
  400f10:	48 8b 45 e8          	mov    -0x18(%rbp),%rax
  400f14:	be 20 00 00 00       	mov    $0x20,%esi
  400f19:	48 89 c7             	mov    %rax,%rdi
  400f1c:	e8 72 06 00 00       	callq  401593 <print_memory>
  my_memset(ptra, MEM_SET_SIZE_B, 0xFF);
  400f21:	48 8b 45 f0          	mov    -0x10(%rbp),%rax
  400f25:	ba ff 00 00 00       	mov    $0xff,%edx
  400f2a:	be 20 00 00 00       	mov    $0x20,%esi
  400f2f:	48 89 c7             	mov    %rax,%rdi
  400f32:	e8 e2 07 00 00       	callq  401719 <my_memset>
  print_memory(set, MEM_SET_SIZE_B);
  400f37:	48 8b 45 e8          	mov    -0x18(%rbp),%rax
  400f3b:	be 20 00 00 00       	mov    $0x20,%esi
  400f40:	48 89 c7             	mov    %rax,%rdi
  400f43:	e8 4b 06 00 00       	callq  401593 <print_memory>
  my_memzero(ptrb, MEM_ZERO_LENGTH);
  400f48:	48 8b 45 f8          	mov    -0x8(%rbp),%rax
  400f4c:	be 10 00 00 00       	mov    $0x10,%esi
  400f51:	48 89 c7             	mov    %rax,%rdi
  400f54:	e8 21 08 00 00       	callq  40177a <my_memzero>
  print_memory(set, MEM_SET_SIZE_B);
  400f59:	48 8b 45 e8          	mov    -0x18(%rbp),%rax
  400f5d:	be 20 00 00 00       	mov    $0x20,%esi
  400f62:	48 89 c7             	mov    %rax,%rdi
  400f65:	e8 29 06 00 00       	callq  401593 <print_memory>
  
  /* Validate Set & Zero Functionality */
  for (i = 0; i < MEM_ZERO_LENGTH; i++)
  400f6a:	c6 45 e6 00          	movb   $0x0,-0x1a(%rbp)
  400f6e:	eb 3c                	jmp    400fac <test_memset+0x10c>
  {
    if (set[i] != 0xFF)
  400f70:	0f b6 55 e6          	movzbl -0x1a(%rbp),%edx
  400f74:	48 8b 45 e8          	mov    -0x18(%rbp),%rax
  400f78:	48 01 d0             	add    %rdx,%rax
  400f7b:	0f b6 00             	movzbl (%rax),%eax
  400f7e:	3c ff                	cmp    $0xff,%al
  400f80:	74 04                	je     400f86 <test_memset+0xe6>
    {
      ret = TEST_ERROR;
  400f82:	c6 45 e7 01          	movb   $0x1,-0x19(%rbp)
    }
    if (set[16 + i] != 0)
  400f86:	0f b6 45 e6          	movzbl -0x1a(%rbp),%eax
  400f8a:	83 c0 10             	add    $0x10,%eax
  400f8d:	48 63 d0             	movslq %eax,%rdx
  400f90:	48 8b 45 e8          	mov    -0x18(%rbp),%rax
  400f94:	48 01 d0             	add    %rdx,%rax
  400f97:	0f b6 00             	movzbl (%rax),%eax
  400f9a:	84 c0                	test   %al,%al
  400f9c:	74 04                	je     400fa2 <test_memset+0x102>
    {
      ret = TEST_ERROR;
  400f9e:	c6 45 e7 01          	movb   $0x1,-0x19(%rbp)
  print_memory(set, MEM_SET_SIZE_B);
  my_memzero(ptrb, MEM_ZERO_LENGTH);
  print_memory(set, MEM_SET_SIZE_B);
  
  /* Validate Set & Zero Functionality */
  for (i = 0; i < MEM_ZERO_LENGTH; i++)
  400fa2:	0f b6 45 e6          	movzbl -0x1a(%rbp),%eax
  400fa6:	83 c0 01             	add    $0x1,%eax
  400fa9:	88 45 e6             	mov    %al,-0x1a(%rbp)
  400fac:	80 7d e6 0f          	cmpb   $0xf,-0x1a(%rbp)
  400fb0:	76 be                	jbe    400f70 <test_memset+0xd0>
    {
      ret = TEST_ERROR;
    }
  }
  
  free_words( (uint32_t*)set );
  400fb2:	48 8b 45 e8          	mov    -0x18(%rbp),%rax
  400fb6:	48 89 c7             	mov    %rax,%rdi
  400fb9:	e8 e1 08 00 00       	callq  40189f <free_words>
  return ret;
  400fbe:	0f b6 45 e7          	movzbl -0x19(%rbp),%eax
}
  400fc2:	c9                   	leaveq 
  400fc3:	c3                   	retq   

0000000000400fc4 <test_reverse>:

int8_t test_reverse()
{
  400fc4:	55                   	push   %rbp
  400fc5:	48 89 e5             	mov    %rsp,%rbp
  400fc8:	48 83 ec 40          	sub    $0x40,%rsp
  400fcc:	64 48 8b 04 25 28 00 	mov    %fs:0x28,%rax
  400fd3:	00 00 
  400fd5:	48 89 45 f8          	mov    %rax,-0x8(%rbp)
  400fd9:	31 c0                	xor    %eax,%eax
  uint8_t i;
  int8_t ret = TEST_NO_ERROR;
  400fdb:	c6 45 c7 00          	movb   $0x0,-0x39(%rbp)
  uint8_t * copy;
  uint8_t set[MEM_SET_SIZE_B] = {0x3F, 0x73, 0x72, 0x33, 0x54, 0x43, 0x72, 0x26,
  400fdf:	c6 45 d0 3f          	movb   $0x3f,-0x30(%rbp)
  400fe3:	c6 45 d1 73          	movb   $0x73,-0x2f(%rbp)
  400fe7:	c6 45 d2 72          	movb   $0x72,-0x2e(%rbp)
  400feb:	c6 45 d3 33          	movb   $0x33,-0x2d(%rbp)
  400fef:	c6 45 d4 54          	movb   $0x54,-0x2c(%rbp)
  400ff3:	c6 45 d5 43          	movb   $0x43,-0x2b(%rbp)
  400ff7:	c6 45 d6 72          	movb   $0x72,-0x2a(%rbp)
  400ffb:	c6 45 d7 26          	movb   $0x26,-0x29(%rbp)
  400fff:	c6 45 d8 48          	movb   $0x48,-0x28(%rbp)
  401003:	c6 45 d9 63          	movb   $0x63,-0x27(%rbp)
  401007:	c6 45 da 20          	movb   $0x20,-0x26(%rbp)
  40100b:	c6 45 db 66          	movb   $0x66,-0x25(%rbp)
  40100f:	c6 45 dc 6f          	movb   $0x6f,-0x24(%rbp)
  401013:	c6 45 dd 00          	movb   $0x0,-0x23(%rbp)
  401017:	c6 45 de 20          	movb   $0x20,-0x22(%rbp)
  40101b:	c6 45 df 33          	movb   $0x33,-0x21(%rbp)
  40101f:	c6 45 e0 72          	movb   $0x72,-0x20(%rbp)
  401023:	c6 45 e1 75          	movb   $0x75,-0x1f(%rbp)
  401027:	c6 45 e2 74          	movb   $0x74,-0x1e(%rbp)
  40102b:	c6 45 e3 78          	movb   $0x78,-0x1d(%rbp)
  40102f:	c6 45 e4 21          	movb   $0x21,-0x1c(%rbp)
  401033:	c6 45 e5 4d          	movb   $0x4d,-0x1b(%rbp)
  401037:	c6 45 e6 20          	movb   $0x20,-0x1a(%rbp)
  40103b:	c6 45 e7 40          	movb   $0x40,-0x19(%rbp)
  40103f:	c6 45 e8 20          	movb   $0x20,-0x18(%rbp)
  401043:	c6 45 e9 24          	movb   $0x24,-0x17(%rbp)
  401047:	c6 45 ea 7c          	movb   $0x7c,-0x16(%rbp)
  40104b:	c6 45 eb 20          	movb   $0x20,-0x15(%rbp)
  40104f:	c6 45 ec 24          	movb   $0x24,-0x14(%rbp)
  401053:	c6 45 ed 69          	movb   $0x69,-0x13(%rbp)
  401057:	c6 45 ee 68          	movb   $0x68,-0x12(%rbp)
  40105b:	c6 45 ef 54          	movb   $0x54,-0x11(%rbp)
                                 0x48, 0x63, 0x20, 0x66, 0x6F, 0x00, 0x20, 0x33,
                                 0x72, 0x75, 0x74, 0x78, 0x21, 0x4D, 0x20, 0x40,
                                 0x20, 0x24, 0x7C, 0x20, 0x24, 0x69, 0x68, 0x54
                               };

  printf("test_reverse()\n");
  40105f:	bf 32 1a 40 00       	mov    $0x401a32,%edi
  401064:	e8 e7 f4 ff ff       	callq  400550 <puts@plt>
  copy = (uint8_t*)reserve_words(MEM_SET_SIZE_W);
  401069:	bf 08 00 00 00       	mov    $0x8,%edi
  40106e:	e8 e9 07 00 00       	callq  40185c <reserve_words>
  401073:	48 89 45 c8          	mov    %rax,-0x38(%rbp)
  if (! copy )
  401077:	48 83 7d c8 00       	cmpq   $0x0,-0x38(%rbp)
  40107c:	75 0a                	jne    401088 <test_reverse+0xc4>
  {
    return TEST_ERROR;
  40107e:	b8 01 00 00 00       	mov    $0x1,%eax
  401083:	e9 a1 00 00 00       	jmpq   401129 <test_reverse+0x165>
  }
  
  my_memcpy(set, copy, MEM_SET_SIZE_B);
  401088:	48 8b 4d c8          	mov    -0x38(%rbp),%rcx
  40108c:	48 8d 45 d0          	lea    -0x30(%rbp),%rax
  401090:	ba 20 00 00 00       	mov    $0x20,%edx
  401095:	48 89 ce             	mov    %rcx,%rsi
  401098:	48 89 c7             	mov    %rax,%rdi
  40109b:	e8 08 06 00 00       	callq  4016a8 <my_memcpy>

  print_memory(set, MEM_SET_SIZE_B);
  4010a0:	48 8d 45 d0          	lea    -0x30(%rbp),%rax
  4010a4:	be 20 00 00 00       	mov    $0x20,%esi
  4010a9:	48 89 c7             	mov    %rax,%rdi
  4010ac:	e8 e2 04 00 00       	callq  401593 <print_memory>
  my_reverse(set, MEM_SET_SIZE_B);
  4010b1:	48 8d 45 d0          	lea    -0x30(%rbp),%rax
  4010b5:	be 20 00 00 00       	mov    $0x20,%esi
  4010ba:	48 89 c7             	mov    %rax,%rdi
  4010bd:	e8 ea 06 00 00       	callq  4017ac <my_reverse>
  print_memory(set, MEM_SET_SIZE_B);
  4010c2:	48 8d 45 d0          	lea    -0x30(%rbp),%rax
  4010c6:	be 20 00 00 00       	mov    $0x20,%esi
  4010cb:	48 89 c7             	mov    %rax,%rdi
  4010ce:	e8 c0 04 00 00       	callq  401593 <print_memory>

  for (i = 0; i < MEM_SET_SIZE_B; i++)
  4010d3:	c6 45 c6 00          	movb   $0x0,-0x3a(%rbp)
  4010d7:	eb 3a                	jmp    401113 <test_reverse+0x14f>
  {
    if (set[i] != copy[MEM_SET_SIZE_B - i - 1])
  4010d9:	0f b6 45 c6          	movzbl -0x3a(%rbp),%eax
  4010dd:	48 98                	cltq   
  4010df:	0f b6 54 05 d0       	movzbl -0x30(%rbp,%rax,1),%edx
  4010e4:	0f b6 45 c6          	movzbl -0x3a(%rbp),%eax
  4010e8:	b9 20 00 00 00       	mov    $0x20,%ecx
  4010ed:	29 c1                	sub    %eax,%ecx
  4010ef:	89 c8                	mov    %ecx,%eax
  4010f1:	48 98                	cltq   
  4010f3:	48 8d 48 ff          	lea    -0x1(%rax),%rcx
  4010f7:	48 8b 45 c8          	mov    -0x38(%rbp),%rax
  4010fb:	48 01 c8             	add    %rcx,%rax
  4010fe:	0f b6 00             	movzbl (%rax),%eax
  401101:	38 c2                	cmp    %al,%dl
  401103:	74 04                	je     401109 <test_reverse+0x145>
    {
      ret = TEST_ERROR;
  401105:	c6 45 c7 01          	movb   $0x1,-0x39(%rbp)

  print_memory(set, MEM_SET_SIZE_B);
  my_reverse(set, MEM_SET_SIZE_B);
  print_memory(set, MEM_SET_SIZE_B);

  for (i = 0; i < MEM_SET_SIZE_B; i++)
  401109:	0f b6 45 c6          	movzbl -0x3a(%rbp),%eax
  40110d:	83 c0 01             	add    $0x1,%eax
  401110:	88 45 c6             	mov    %al,-0x3a(%rbp)
  401113:	80 7d c6 1f          	cmpb   $0x1f,-0x3a(%rbp)
  401117:	76 c0                	jbe    4010d9 <test_reverse+0x115>
    {
      ret = TEST_ERROR;
    }
  }

  free_words( (uint32_t*)copy );
  401119:	48 8b 45 c8          	mov    -0x38(%rbp),%rax
  40111d:	48 89 c7             	mov    %rax,%rdi
  401120:	e8 7a 07 00 00       	callq  40189f <free_words>
  return ret;
  401125:	0f b6 45 c7          	movzbl -0x39(%rbp),%eax
}
  401129:	48 8b 55 f8          	mov    -0x8(%rbp),%rdx
  40112d:	64 48 33 14 25 28 00 	xor    %fs:0x28,%rdx
  401134:	00 00 
  401136:	74 05                	je     40113d <test_reverse+0x179>
  401138:	e8 23 f4 ff ff       	callq  400560 <__stack_chk_fail@plt>
  40113d:	c9                   	leaveq 
  40113e:	c3                   	retq   

000000000040113f <project1>:

void project1(void) 
{
  40113f:	55                   	push   %rbp
  401140:	48 89 e5             	mov    %rsp,%rbp
  401143:	48 83 ec 20          	sub    $0x20,%rsp
  401147:	64 48 8b 04 25 28 00 	mov    %fs:0x28,%rax
  40114e:	00 00 
  401150:	48 89 45 f8          	mov    %rax,-0x8(%rbp)
  401154:	31 c0                	xor    %eax,%eax
  uint8_t i;
  int8_t failed = 0;
  401156:	c6 45 ef 00          	movb   $0x0,-0x11(%rbp)
  int8_t results[TESTCOUNT];

  results[0] = test_data1();
  40115a:	b8 00 00 00 00       	mov    $0x0,%eax
  40115f:	e8 65 f8 ff ff       	callq  4009c9 <test_data1>
  401164:	88 45 f0             	mov    %al,-0x10(%rbp)
  results[1] = test_data2();
  401167:	b8 00 00 00 00       	mov    $0x0,%eax
  40116c:	e8 e7 f8 ff ff       	callq  400a58 <test_data2>
  401171:	88 45 f1             	mov    %al,-0xf(%rbp)
  results[2] = test_memmove1();
  401174:	b8 00 00 00 00       	mov    $0x0,%eax
  401179:	e8 69 f9 ff ff       	callq  400ae7 <test_memmove1>
  40117e:	88 45 f2             	mov    %al,-0xe(%rbp)
  results[3] = test_memmove2();
  401181:	b8 00 00 00 00       	mov    $0x0,%eax
  401186:	e8 49 fa ff ff       	callq  400bd4 <test_memmove2>
  40118b:	88 45 f3             	mov    %al,-0xd(%rbp)
  results[4] = test_memmove3();
  40118e:	b8 00 00 00 00       	mov    $0x0,%eax
  401193:	e8 29 fb ff ff       	callq  400cc1 <test_memmove3>
  401198:	88 45 f4             	mov    %al,-0xc(%rbp)
  results[5] = test_memcpy();
  40119b:	b8 00 00 00 00       	mov    $0x0,%eax
  4011a0:	e8 0e fc ff ff       	callq  400db3 <test_memcpy>
  4011a5:	88 45 f5             	mov    %al,-0xb(%rbp)
  results[6] = test_memset();
  4011a8:	b8 00 00 00 00       	mov    $0x0,%eax
  4011ad:	e8 ee fc ff ff       	callq  400ea0 <test_memset>
  4011b2:	88 45 f6             	mov    %al,-0xa(%rbp)
  results[7] = test_reverse();
  4011b5:	b8 00 00 00 00       	mov    $0x0,%eax
  4011ba:	e8 05 fe ff ff       	callq  400fc4 <test_reverse>
  4011bf:	88 45 f7             	mov    %al,-0x9(%rbp)

  for ( i = 0; i < TESTCOUNT; i++) 
  4011c2:	c6 45 ee 00          	movb   $0x0,-0x12(%rbp)
  4011c6:	eb 3f                	jmp    401207 <project1+0xc8>
  {
    printf("%d\n",results[i]);
  4011c8:	0f b6 45 ee          	movzbl -0x12(%rbp),%eax
  4011cc:	48 98                	cltq   
  4011ce:	0f b6 44 05 f0       	movzbl -0x10(%rbp,%rax,1),%eax
  4011d3:	0f be c0             	movsbl %al,%eax
  4011d6:	89 c6                	mov    %eax,%esi
  4011d8:	bf 41 1a 40 00       	mov    $0x401a41,%edi
  4011dd:	b8 00 00 00 00       	mov    $0x0,%eax
  4011e2:	e8 89 f3 ff ff       	callq  400570 <printf@plt>
    failed += results[i];
  4011e7:	0f b6 45 ee          	movzbl -0x12(%rbp),%eax
  4011eb:	48 98                	cltq   
  4011ed:	0f b6 44 05 f0       	movzbl -0x10(%rbp,%rax,1),%eax
  4011f2:	89 c2                	mov    %eax,%edx
  4011f4:	0f b6 45 ef          	movzbl -0x11(%rbp),%eax
  4011f8:	01 d0                	add    %edx,%eax
  4011fa:	88 45 ef             	mov    %al,-0x11(%rbp)
  results[4] = test_memmove3();
  results[5] = test_memcpy();
  results[6] = test_memset();
  results[7] = test_reverse();

  for ( i = 0; i < TESTCOUNT; i++) 
  4011fd:	0f b6 45 ee          	movzbl -0x12(%rbp),%eax
  401201:	83 c0 01             	add    $0x1,%eax
  401204:	88 45 ee             	mov    %al,-0x12(%rbp)
  401207:	80 7d ee 07          	cmpb   $0x7,-0x12(%rbp)
  40120b:	76 bb                	jbe    4011c8 <project1+0x89>
  {
    printf("%d\n",results[i]);
    failed += results[i];
  }

  printf("--------------------------------\n");
  40120d:	bf 48 1a 40 00       	mov    $0x401a48,%edi
  401212:	e8 39 f3 ff ff       	callq  400550 <puts@plt>
  printf("Test Results:\n");
  401217:	bf 69 1a 40 00       	mov    $0x401a69,%edi
  40121c:	e8 2f f3 ff ff       	callq  400550 <puts@plt>
  printf("  PASSED: %d / %d\n", (TESTCOUNT - failed), TESTCOUNT);
  401221:	0f be 45 ef          	movsbl -0x11(%rbp),%eax
  401225:	ba 08 00 00 00       	mov    $0x8,%edx
  40122a:	29 c2                	sub    %eax,%edx
  40122c:	89 d0                	mov    %edx,%eax
  40122e:	ba 08 00 00 00       	mov    $0x8,%edx
  401233:	89 c6                	mov    %eax,%esi
  401235:	bf 77 1a 40 00       	mov    $0x401a77,%edi
  40123a:	b8 00 00 00 00       	mov    $0x0,%eax
  40123f:	e8 2c f3 ff ff       	callq  400570 <printf@plt>
  printf("  FAILED: %d / %d\n", failed, TESTCOUNT);
  401244:	0f be 45 ef          	movsbl -0x11(%rbp),%eax
  401248:	ba 08 00 00 00       	mov    $0x8,%edx
  40124d:	89 c6                	mov    %eax,%esi
  40124f:	bf 8a 1a 40 00       	mov    $0x401a8a,%edi
  401254:	b8 00 00 00 00       	mov    $0x0,%eax
  401259:	e8 12 f3 ff ff       	callq  400570 <printf@plt>
  printf("--------------------------------\n");
  40125e:	bf 48 1a 40 00       	mov    $0x401a48,%edi
  401263:	e8 e8 f2 ff ff       	callq  400550 <puts@plt>
}
  401268:	90                   	nop
  401269:	48 8b 45 f8          	mov    -0x8(%rbp),%rax
  40126d:	64 48 33 04 25 28 00 	xor    %fs:0x28,%rax
  401274:	00 00 
  401276:	74 05                	je     40127d <project1+0x13e>
  401278:	e8 e3 f2 ff ff       	callq  400560 <__stack_chk_fail@plt>
  40127d:	c9                   	leaveq 
  40127e:	c3                   	retq   

000000000040127f <SystemInit>:

/* ----------------------------------------------------------------------------
   -- SystemInit()
   ---------------------------------------------------------------------------- */

void SystemInit (void) {
  40127f:	55                   	push   %rbp
  401280:	48 89 e5             	mov    %rsp,%rbp
#if (DISABLE_WDOG)
  /* SIM_COPC: COPT=0,COPCLKS=0,COPW=0 */
  SIM->COPC = (uint32_t)0x00u;
  401283:	b8 00 70 04 40       	mov    $0x40047000,%eax
  401288:	c7 80 00 11 00 00 00 	movl   $0x0,0x1100(%rax)
  40128f:	00 00 00 
  /* PLL loss of lock interrupt request initialization */
  if (((SYSTEM_MCG_C6_VALUE) & MCG_C6_LOLIE0_MASK) != 0U) {
    NVIC_EnableIRQ(MCG_IRQn);          /* Enable PLL loss of lock interrupt request */
  }
#endif
}
  401292:	90                   	nop
  401293:	5d                   	pop    %rbp
  401294:	c3                   	retq   

0000000000401295 <SystemCoreClockUpdate>:

/* ----------------------------------------------------------------------------
   -- SystemCoreClockUpdate()
   ---------------------------------------------------------------------------- */

void SystemCoreClockUpdate (void) {
  401295:	55                   	push   %rbp
  401296:	48 89 e5             	mov    %rsp,%rbp
  uint32_t MCGOUTClock;                /* Variable to store output clock frequency of the MCG module */
  uint16_t Divider;

  if ((MCG->C1 & MCG_C1_CLKS_MASK) == 0x00U) {
  401299:	b8 00 40 06 40       	mov    $0x40064000,%eax
  40129e:	0f b6 00             	movzbl (%rax),%eax
  4012a1:	0f b6 c0             	movzbl %al,%eax
  4012a4:	25 c0 00 00 00       	and    $0xc0,%eax
  4012a9:	85 c0                	test   %eax,%eax
  4012ab:	0f 85 26 02 00 00    	jne    4014d7 <SystemCoreClockUpdate+0x242>
    /* Output of FLL or PLL is selected */
    if ((MCG->C6 & MCG_C6_PLLS_MASK) == 0x00U) {
  4012b1:	b8 00 40 06 40       	mov    $0x40064000,%eax
  4012b6:	0f b6 40 05          	movzbl 0x5(%rax),%eax
  4012ba:	0f b6 c0             	movzbl %al,%eax
  4012bd:	83 e0 40             	and    $0x40,%eax
  4012c0:	85 c0                	test   %eax,%eax
  4012c2:	0f 85 be 01 00 00    	jne    401486 <SystemCoreClockUpdate+0x1f1>
      /* FLL is selected */
      if ((MCG->C1 & MCG_C1_IREFS_MASK) == 0x00U) {
  4012c8:	b8 00 40 06 40       	mov    $0x40064000,%eax
  4012cd:	0f b6 00             	movzbl (%rax),%eax
  4012d0:	0f b6 c0             	movzbl %al,%eax
  4012d3:	83 e0 04             	and    $0x4,%eax
  4012d6:	85 c0                	test   %eax,%eax
  4012d8:	0f 85 9c 00 00 00    	jne    40137a <SystemCoreClockUpdate+0xe5>
        /* External reference clock is selected */
        MCGOUTClock = CPU_XTAL_CLK_HZ; /* System oscillator drives MCG clock */
  4012de:	c7 45 fc 00 12 7a 00 	movl   $0x7a1200,-0x4(%rbp)
        if ((MCG->C2 & MCG_C2_RANGE0_MASK) != 0x00U) {
  4012e5:	b8 00 40 06 40       	mov    $0x40064000,%eax
  4012ea:	0f b6 40 01          	movzbl 0x1(%rax),%eax
  4012ee:	0f b6 c0             	movzbl %al,%eax
  4012f1:	83 e0 30             	and    $0x30,%eax
  4012f4:	85 c0                	test   %eax,%eax
  4012f6:	74 4d                	je     401345 <SystemCoreClockUpdate+0xb0>
          switch (MCG->C1 & MCG_C1_FRDIV_MASK) {
  4012f8:	b8 00 40 06 40       	mov    $0x40064000,%eax
  4012fd:	0f b6 00             	movzbl (%rax),%eax
  401300:	0f b6 c0             	movzbl %al,%eax
  401303:	83 e0 38             	and    $0x38,%eax
  401306:	83 f8 30             	cmp    $0x30,%eax
  401309:	74 0d                	je     401318 <SystemCoreClockUpdate+0x83>
  40130b:	83 f8 38             	cmp    $0x38,%eax
  40130e:	75 10                	jne    401320 <SystemCoreClockUpdate+0x8b>
          case 0x38U:
            Divider = 1536U;
  401310:	66 c7 45 fa 00 06    	movw   $0x600,-0x6(%rbp)
            break;
  401316:	eb 4f                	jmp    401367 <SystemCoreClockUpdate+0xd2>
          case 0x30U:
            Divider = 1280U;
  401318:	66 c7 45 fa 00 05    	movw   $0x500,-0x6(%rbp)
            break;
  40131e:	eb 47                	jmp    401367 <SystemCoreClockUpdate+0xd2>
          default:
            Divider = (uint16_t)(32LU << ((MCG->C1 & MCG_C1_FRDIV_MASK) >> MCG_C1_FRDIV_SHIFT));
  401320:	b8 00 40 06 40       	mov    $0x40064000,%eax
  401325:	0f b6 00             	movzbl (%rax),%eax
  401328:	0f b6 c0             	movzbl %al,%eax
  40132b:	83 e0 38             	and    $0x38,%eax
  40132e:	c1 e8 03             	shr    $0x3,%eax
  401331:	ba 20 00 00 00       	mov    $0x20,%edx
  401336:	89 c1                	mov    %eax,%ecx
  401338:	48 d3 e2             	shl    %cl,%rdx
  40133b:	48 89 d0             	mov    %rdx,%rax
  40133e:	66 89 45 fa          	mov    %ax,-0x6(%rbp)
            break;
  401342:	90                   	nop
  401343:	eb 22                	jmp    401367 <SystemCoreClockUpdate+0xd2>
          }
        } else {/* ((MCG->C2 & MCG_C2_RANGE_MASK) != 0x00U) */
          Divider = (uint16_t)(1LU << ((MCG->C1 & MCG_C1_FRDIV_MASK) >> MCG_C1_FRDIV_SHIFT));
  401345:	b8 00 40 06 40       	mov    $0x40064000,%eax
  40134a:	0f b6 00             	movzbl (%rax),%eax
  40134d:	0f b6 c0             	movzbl %al,%eax
  401350:	83 e0 38             	and    $0x38,%eax
  401353:	c1 e8 03             	shr    $0x3,%eax
  401356:	ba 01 00 00 00       	mov    $0x1,%edx
  40135b:	89 c1                	mov    %eax,%ecx
  40135d:	48 d3 e2             	shl    %cl,%rdx
  401360:	48 89 d0             	mov    %rdx,%rax
  401363:	66 89 45 fa          	mov    %ax,-0x6(%rbp)
        }
        MCGOUTClock = (MCGOUTClock / Divider); /* Calculate the divided FLL reference clock */
  401367:	0f b7 7d fa          	movzwl -0x6(%rbp),%edi
  40136b:	8b 45 fc             	mov    -0x4(%rbp),%eax
  40136e:	ba 00 00 00 00       	mov    $0x0,%edx
  401373:	f7 f7                	div    %edi
  401375:	89 45 fc             	mov    %eax,-0x4(%rbp)
  401378:	eb 07                	jmp    401381 <SystemCoreClockUpdate+0xec>
      } else { /* (!((MCG->C1 & MCG_C1_IREFS_MASK) == 0x00U)) */
        MCGOUTClock = CPU_INT_SLOW_CLK_HZ; /* The slow internal reference clock is selected */
  40137a:	c7 45 fc 00 80 00 00 	movl   $0x8000,-0x4(%rbp)
      } /* (!((MCG->C1 & MCG_C1_IREFS_MASK) == 0x00U)) */
      /* Select correct multiplier to calculate the MCG output clock  */
      switch (MCG->C4 & (MCG_C4_DMX32_MASK | MCG_C4_DRST_DRS_MASK)) {
  401381:	b8 00 40 06 40       	mov    $0x40064000,%eax
  401386:	0f b6 40 03          	movzbl 0x3(%rax),%eax
  40138a:	0f b6 c0             	movzbl %al,%eax
  40138d:	25 e0 00 00 00       	and    $0xe0,%eax
  401392:	83 f8 60             	cmp    $0x60,%eax
  401395:	0f 84 92 00 00 00    	je     40142d <SystemCoreClockUpdate+0x198>
  40139b:	83 f8 60             	cmp    $0x60,%eax
  40139e:	77 13                	ja     4013b3 <SystemCoreClockUpdate+0x11e>
  4013a0:	83 f8 20             	cmp    $0x20,%eax
  4013a3:	74 5c                	je     401401 <SystemCoreClockUpdate+0x16c>
  4013a5:	83 f8 40             	cmp    $0x40,%eax
  4013a8:	74 6c                	je     401416 <SystemCoreClockUpdate+0x181>
  4013aa:	85 c0                	test   %eax,%eax
  4013ac:	74 3e                	je     4013ec <SystemCoreClockUpdate+0x157>
          break;
        case 0xE0U:
          MCGOUTClock *= 2929U;
          break;
        default:
          break;
  4013ae:	e9 aa 01 00 00       	jmpq   40155d <SystemCoreClockUpdate+0x2c8>
        MCGOUTClock = (MCGOUTClock / Divider); /* Calculate the divided FLL reference clock */
      } else { /* (!((MCG->C1 & MCG_C1_IREFS_MASK) == 0x00U)) */
        MCGOUTClock = CPU_INT_SLOW_CLK_HZ; /* The slow internal reference clock is selected */
      } /* (!((MCG->C1 & MCG_C1_IREFS_MASK) == 0x00U)) */
      /* Select correct multiplier to calculate the MCG output clock  */
      switch (MCG->C4 & (MCG_C4_DMX32_MASK | MCG_C4_DRST_DRS_MASK)) {
  4013b3:	3d a0 00 00 00       	cmp    $0xa0,%eax
  4013b8:	0f 84 95 00 00 00    	je     401453 <SystemCoreClockUpdate+0x1be>
  4013be:	3d a0 00 00 00       	cmp    $0xa0,%eax
  4013c3:	77 0c                	ja     4013d1 <SystemCoreClockUpdate+0x13c>
  4013c5:	3d 80 00 00 00       	cmp    $0x80,%eax
  4013ca:	74 76                	je     401442 <SystemCoreClockUpdate+0x1ad>
          break;
        case 0xE0U:
          MCGOUTClock *= 2929U;
          break;
        default:
          break;
  4013cc:	e9 8c 01 00 00       	jmpq   40155d <SystemCoreClockUpdate+0x2c8>
        MCGOUTClock = (MCGOUTClock / Divider); /* Calculate the divided FLL reference clock */
      } else { /* (!((MCG->C1 & MCG_C1_IREFS_MASK) == 0x00U)) */
        MCGOUTClock = CPU_INT_SLOW_CLK_HZ; /* The slow internal reference clock is selected */
      } /* (!((MCG->C1 & MCG_C1_IREFS_MASK) == 0x00U)) */
      /* Select correct multiplier to calculate the MCG output clock  */
      switch (MCG->C4 & (MCG_C4_DMX32_MASK | MCG_C4_DRST_DRS_MASK)) {
  4013d1:	3d c0 00 00 00       	cmp    $0xc0,%eax
  4013d6:	0f 84 88 00 00 00    	je     401464 <SystemCoreClockUpdate+0x1cf>
  4013dc:	3d e0 00 00 00       	cmp    $0xe0,%eax
  4013e1:	0f 84 8e 00 00 00    	je     401475 <SystemCoreClockUpdate+0x1e0>
          break;
        case 0xE0U:
          MCGOUTClock *= 2929U;
          break;
        default:
          break;
  4013e7:	e9 71 01 00 00       	jmpq   40155d <SystemCoreClockUpdate+0x2c8>
        MCGOUTClock = CPU_INT_SLOW_CLK_HZ; /* The slow internal reference clock is selected */
      } /* (!((MCG->C1 & MCG_C1_IREFS_MASK) == 0x00U)) */
      /* Select correct multiplier to calculate the MCG output clock  */
      switch (MCG->C4 & (MCG_C4_DMX32_MASK | MCG_C4_DRST_DRS_MASK)) {
        case 0x00U:
          MCGOUTClock *= 640U;
  4013ec:	8b 55 fc             	mov    -0x4(%rbp),%edx
  4013ef:	89 d0                	mov    %edx,%eax
  4013f1:	c1 e0 02             	shl    $0x2,%eax
  4013f4:	01 d0                	add    %edx,%eax
  4013f6:	c1 e0 07             	shl    $0x7,%eax
  4013f9:	89 45 fc             	mov    %eax,-0x4(%rbp)
          break;
  4013fc:	e9 5c 01 00 00       	jmpq   40155d <SystemCoreClockUpdate+0x2c8>
        case 0x20U:
          MCGOUTClock *= 1280U;
  401401:	8b 55 fc             	mov    -0x4(%rbp),%edx
  401404:	89 d0                	mov    %edx,%eax
  401406:	c1 e0 02             	shl    $0x2,%eax
  401409:	01 d0                	add    %edx,%eax
  40140b:	c1 e0 08             	shl    $0x8,%eax
  40140e:	89 45 fc             	mov    %eax,-0x4(%rbp)
          break;
  401411:	e9 47 01 00 00       	jmpq   40155d <SystemCoreClockUpdate+0x2c8>
        case 0x40U:
          MCGOUTClock *= 1920U;
  401416:	8b 45 fc             	mov    -0x4(%rbp),%eax
  401419:	c1 e0 07             	shl    $0x7,%eax
  40141c:	89 c2                	mov    %eax,%edx
  40141e:	c1 e2 04             	shl    $0x4,%edx
  401421:	29 c2                	sub    %eax,%edx
  401423:	89 d0                	mov    %edx,%eax
  401425:	89 45 fc             	mov    %eax,-0x4(%rbp)
          break;
  401428:	e9 30 01 00 00       	jmpq   40155d <SystemCoreClockUpdate+0x2c8>
        case 0x60U:
          MCGOUTClock *= 2560U;
  40142d:	8b 55 fc             	mov    -0x4(%rbp),%edx
  401430:	89 d0                	mov    %edx,%eax
  401432:	c1 e0 02             	shl    $0x2,%eax
  401435:	01 d0                	add    %edx,%eax
  401437:	c1 e0 09             	shl    $0x9,%eax
  40143a:	89 45 fc             	mov    %eax,-0x4(%rbp)
          break;
  40143d:	e9 1b 01 00 00       	jmpq   40155d <SystemCoreClockUpdate+0x2c8>
        case 0x80U:
          MCGOUTClock *= 732U;
  401442:	8b 45 fc             	mov    -0x4(%rbp),%eax
  401445:	69 c0 dc 02 00 00    	imul   $0x2dc,%eax,%eax
  40144b:	89 45 fc             	mov    %eax,-0x4(%rbp)
          break;
  40144e:	e9 0a 01 00 00       	jmpq   40155d <SystemCoreClockUpdate+0x2c8>
        case 0xA0U:
          MCGOUTClock *= 1464U;
  401453:	8b 45 fc             	mov    -0x4(%rbp),%eax
  401456:	69 c0 b8 05 00 00    	imul   $0x5b8,%eax,%eax
  40145c:	89 45 fc             	mov    %eax,-0x4(%rbp)
          break;
  40145f:	e9 f9 00 00 00       	jmpq   40155d <SystemCoreClockUpdate+0x2c8>
        case 0xC0U:
          MCGOUTClock *= 2197U;
  401464:	8b 45 fc             	mov    -0x4(%rbp),%eax
  401467:	69 c0 95 08 00 00    	imul   $0x895,%eax,%eax
  40146d:	89 45 fc             	mov    %eax,-0x4(%rbp)
          break;
  401470:	e9 e8 00 00 00       	jmpq   40155d <SystemCoreClockUpdate+0x2c8>
        case 0xE0U:
          MCGOUTClock *= 2929U;
  401475:	8b 45 fc             	mov    -0x4(%rbp),%eax
  401478:	69 c0 71 0b 00 00    	imul   $0xb71,%eax,%eax
  40147e:	89 45 fc             	mov    %eax,-0x4(%rbp)
          break;
  401481:	e9 d7 00 00 00       	jmpq   40155d <SystemCoreClockUpdate+0x2c8>
        default:
          break;
      }
    } else { /* (!((MCG->C6 & MCG_C6_PLLS_MASK) == 0x00U)) */
      /* PLL is selected */
      Divider = (((uint16_t)MCG->C5 & MCG_C5_PRDIV0_MASK) + 0x01U);
  401486:	b8 00 40 06 40       	mov    $0x40064000,%eax
  40148b:	0f b6 40 04          	movzbl 0x4(%rax),%eax
  40148f:	0f b6 c0             	movzbl %al,%eax
  401492:	83 e0 1f             	and    $0x1f,%eax
  401495:	83 c0 01             	add    $0x1,%eax
  401498:	66 89 45 fa          	mov    %ax,-0x6(%rbp)
      MCGOUTClock = (uint32_t)(CPU_XTAL_CLK_HZ / Divider); /* Calculate the PLL reference clock */
  40149c:	0f b7 75 fa          	movzwl -0x6(%rbp),%esi
  4014a0:	b8 00 12 7a 00       	mov    $0x7a1200,%eax
  4014a5:	ba 00 00 00 00       	mov    $0x0,%edx
  4014aa:	f7 f6                	div    %esi
  4014ac:	89 45 fc             	mov    %eax,-0x4(%rbp)
      Divider = (((uint16_t)MCG->C6 & MCG_C6_VDIV0_MASK) + 24U);
  4014af:	b8 00 40 06 40       	mov    $0x40064000,%eax
  4014b4:	0f b6 40 05          	movzbl 0x5(%rax),%eax
  4014b8:	0f b6 c0             	movzbl %al,%eax
  4014bb:	83 e0 1f             	and    $0x1f,%eax
  4014be:	83 c0 18             	add    $0x18,%eax
  4014c1:	66 89 45 fa          	mov    %ax,-0x6(%rbp)
      MCGOUTClock *= Divider;          /* Calculate the MCG output clock */
  4014c5:	0f b7 45 fa          	movzwl -0x6(%rbp),%eax
  4014c9:	8b 55 fc             	mov    -0x4(%rbp),%edx
  4014cc:	0f af c2             	imul   %edx,%eax
  4014cf:	89 45 fc             	mov    %eax,-0x4(%rbp)
  4014d2:	e9 86 00 00 00       	jmpq   40155d <SystemCoreClockUpdate+0x2c8>
    } /* (!((MCG->C6 & MCG_C6_PLLS_MASK) == 0x00U)) */
  } else if ((MCG->C1 & MCG_C1_CLKS_MASK) == 0x40U) {
  4014d7:	b8 00 40 06 40       	mov    $0x40064000,%eax
  4014dc:	0f b6 00             	movzbl (%rax),%eax
  4014df:	0f b6 c0             	movzbl %al,%eax
  4014e2:	25 c0 00 00 00       	and    $0xc0,%eax
  4014e7:	83 f8 40             	cmp    $0x40,%eax
  4014ea:	75 53                	jne    40153f <SystemCoreClockUpdate+0x2aa>
    /* Internal reference clock is selected */
    if ((MCG->C2 & MCG_C2_IRCS_MASK) == 0x00U) {
  4014ec:	b8 00 40 06 40       	mov    $0x40064000,%eax
  4014f1:	0f b6 40 01          	movzbl 0x1(%rax),%eax
  4014f5:	0f b6 c0             	movzbl %al,%eax
  4014f8:	83 e0 01             	and    $0x1,%eax
  4014fb:	85 c0                	test   %eax,%eax
  4014fd:	75 09                	jne    401508 <SystemCoreClockUpdate+0x273>
      MCGOUTClock = CPU_INT_SLOW_CLK_HZ; /* Slow internal reference clock selected */
  4014ff:	c7 45 fc 00 80 00 00 	movl   $0x8000,-0x4(%rbp)
  401506:	eb 55                	jmp    40155d <SystemCoreClockUpdate+0x2c8>
    } else { /* (!((MCG->C2 & MCG_C2_IRCS_MASK) == 0x00U)) */
      Divider = (uint16_t)(0x01LU << ((MCG->SC & MCG_SC_FCRDIV_MASK) >> MCG_SC_FCRDIV_SHIFT));
  401508:	b8 00 40 06 40       	mov    $0x40064000,%eax
  40150d:	0f b6 40 08          	movzbl 0x8(%rax),%eax
  401511:	0f b6 c0             	movzbl %al,%eax
  401514:	83 e0 0e             	and    $0xe,%eax
  401517:	d1 e8                	shr    %eax
  401519:	ba 01 00 00 00       	mov    $0x1,%edx
  40151e:	89 c1                	mov    %eax,%ecx
  401520:	48 d3 e2             	shl    %cl,%rdx
  401523:	48 89 d0             	mov    %rdx,%rax
  401526:	66 89 45 fa          	mov    %ax,-0x6(%rbp)
      MCGOUTClock = (uint32_t) (CPU_INT_FAST_CLK_HZ / Divider); /* Fast internal reference clock selected */
  40152a:	0f b7 75 fa          	movzwl -0x6(%rbp),%esi
  40152e:	b8 00 09 3d 00       	mov    $0x3d0900,%eax
  401533:	ba 00 00 00 00       	mov    $0x0,%edx
  401538:	f7 f6                	div    %esi
  40153a:	89 45 fc             	mov    %eax,-0x4(%rbp)
  40153d:	eb 1e                	jmp    40155d <SystemCoreClockUpdate+0x2c8>
    } /* (!((MCG->C2 & MCG_C2_IRCS_MASK) == 0x00U)) */
  } else if ((MCG->C1 & MCG_C1_CLKS_MASK) == 0x80U) {
  40153f:	b8 00 40 06 40       	mov    $0x40064000,%eax
  401544:	0f b6 00             	movzbl (%rax),%eax
  401547:	0f b6 c0             	movzbl %al,%eax
  40154a:	25 c0 00 00 00       	and    $0xc0,%eax
  40154f:	3d 80 00 00 00       	cmp    $0x80,%eax
  401554:	75 2a                	jne    401580 <SystemCoreClockUpdate+0x2eb>
    /* External reference clock is selected */
    MCGOUTClock = CPU_XTAL_CLK_HZ;     /* System oscillator drives MCG clock */
  401556:	c7 45 fc 00 12 7a 00 	movl   $0x7a1200,-0x4(%rbp)
  } else { /* (!((MCG->C1 & MCG_C1_CLKS_MASK) == 0x80U)) */
    /* Reserved value */
    return;
  } /* (!((MCG->C1 & MCG_C1_CLKS_MASK) == 0x80U)) */
  SystemCoreClock = (MCGOUTClock / (0x01U + ((SIM->CLKDIV1 & SIM_CLKDIV1_OUTDIV1_MASK) >> SIM_CLKDIV1_OUTDIV1_SHIFT)));
  40155d:	b8 00 70 04 40       	mov    $0x40047000,%eax
  401562:	8b 80 44 10 00 00    	mov    0x1044(%rax),%eax
  401568:	c1 e8 1c             	shr    $0x1c,%eax
  40156b:	8d 78 01             	lea    0x1(%rax),%edi
  40156e:	8b 45 fc             	mov    -0x4(%rbp),%eax
  401571:	ba 00 00 00 00       	mov    $0x0,%edx
  401576:	f7 f7                	div    %edi
  401578:	89 05 e2 1a 20 00    	mov    %eax,0x201ae2(%rip)        # 603060 <SystemCoreClock>
  40157e:	eb 01                	jmp    401581 <SystemCoreClockUpdate+0x2ec>
  } else if ((MCG->C1 & MCG_C1_CLKS_MASK) == 0x80U) {
    /* External reference clock is selected */
    MCGOUTClock = CPU_XTAL_CLK_HZ;     /* System oscillator drives MCG clock */
  } else { /* (!((MCG->C1 & MCG_C1_CLKS_MASK) == 0x80U)) */
    /* Reserved value */
    return;
  401580:	90                   	nop
  } /* (!((MCG->C1 & MCG_C1_CLKS_MASK) == 0x80U)) */
  SystemCoreClock = (MCGOUTClock / (0x01U + ((SIM->CLKDIV1 & SIM_CLKDIV1_OUTDIV1_MASK) >> SIM_CLKDIV1_OUTDIV1_SHIFT)));
}
  401581:	5d                   	pop    %rbp
  401582:	c3                   	retq   

0000000000401583 <main>:
 */

#include "project1.h"

int main()
{
  401583:	55                   	push   %rbp
  401584:	48 89 e5             	mov    %rsp,%rbp
#ifdef PROJECT1
	project1();
  401587:	e8 b3 fb ff ff       	callq  40113f <project1>
#endif
	return 0;
  40158c:	b8 00 00 00 00       	mov    $0x0,%eax
}
  401591:	5d                   	pop    %rbp
  401592:	c3                   	retq   

0000000000401593 <print_memory>:
 */

# include "debug.h"

void print_memory(uint8_t * start, uint32_t length)
{
  401593:	55                   	push   %rbp
  401594:	48 89 e5             	mov    %rsp,%rbp
  401597:	48 89 7d f8          	mov    %rdi,-0x8(%rbp)
  40159b:	89 75 f4             	mov    %esi,-0xc(%rbp)
		printf("%x   ",*(start+i));
	}
	printf("\n");
	
#else
    return;
  40159e:	90                   	nop
#endif
  40159f:	5d                   	pop    %rbp
  4015a0:	c3                   	retq   

00000000004015a1 <my_memmove>:
#include "memory.h"
#include <math.h>


uint8_t * my_memmove(uint8_t * src, uint8_t * dst, size_t length)
{
  4015a1:	55                   	push   %rbp
  4015a2:	48 89 e5             	mov    %rsp,%rbp
  4015a5:	48 83 ec 30          	sub    $0x30,%rsp
  4015a9:	48 89 7d e8          	mov    %rdi,-0x18(%rbp)
  4015ad:	48 89 75 e0          	mov    %rsi,-0x20(%rbp)
  4015b1:	48 89 55 d8          	mov    %rdx,-0x28(%rbp)
   
    int i;                     /*Temp variable to store source contents*/
    printf("\n  src is %s\n",src);
  4015b5:	48 8b 45 e8          	mov    -0x18(%rbp),%rax
  4015b9:	48 89 c6             	mov    %rax,%rsi
  4015bc:	bf a0 1a 40 00       	mov    $0x401aa0,%edi
  4015c1:	b8 00 00 00 00       	mov    $0x0,%eax
  4015c6:	e8 a5 ef ff ff       	callq  400570 <printf@plt>
    if(src == NULL || dst == NULL) 
  4015cb:	48 83 7d e8 00       	cmpq   $0x0,-0x18(%rbp)
  4015d0:	74 07                	je     4015d9 <my_memmove+0x38>
  4015d2:	48 83 7d e0 00       	cmpq   $0x0,-0x20(%rbp)
  4015d7:	75 14                	jne    4015ed <my_memmove+0x4c>
    {
        printf("\nNothing is assigned to source..exiting\n");
  4015d9:	bf b0 1a 40 00       	mov    $0x401ab0,%edi
  4015de:	e8 6d ef ff ff       	callq  400550 <puts@plt>
        exit(1);
  4015e3:	bf 01 00 00 00       	mov    $0x1,%edi
  4015e8:	e8 b3 ef ff ff       	callq  4005a0 <exit@plt>
    }
    else 
    {    
        bool overlap = (abs(dst-src)>(length*sizeof(uint8_t))) || (src-dst>0);
  4015ed:	48 8b 55 e0          	mov    -0x20(%rbp),%rdx
  4015f1:	48 8b 45 e8          	mov    -0x18(%rbp),%rax
  4015f5:	48 29 c2             	sub    %rax,%rdx
  4015f8:	48 89 d0             	mov    %rdx,%rax
  4015fb:	99                   	cltd   
  4015fc:	31 d0                	xor    %edx,%eax
  4015fe:	29 d0                	sub    %edx,%eax
  401600:	48 98                	cltq   
  401602:	48 3b 45 d8          	cmp    -0x28(%rbp),%rax
  401606:	77 13                	ja     40161b <my_memmove+0x7a>
  401608:	48 8b 55 e8          	mov    -0x18(%rbp),%rdx
  40160c:	48 8b 45 e0          	mov    -0x20(%rbp),%rax
  401610:	48 29 c2             	sub    %rax,%rdx
  401613:	48 89 d0             	mov    %rdx,%rax
  401616:	48 85 c0             	test   %rax,%rax
  401619:	7e 07                	jle    401622 <my_memmove+0x81>
  40161b:	b8 01 00 00 00       	mov    $0x1,%eax
  401620:	eb 05                	jmp    401627 <my_memmove+0x86>
  401622:	b8 00 00 00 00       	mov    $0x0,%eax
  401627:	88 45 fb             	mov    %al,-0x5(%rbp)
  40162a:	80 65 fb 01          	andb   $0x1,-0x5(%rbp)
        if(overlap)         /* Check for condition where forward copy is acceptable*/
  40162e:	80 7d fb 00          	cmpb   $0x0,-0x5(%rbp)
  401632:	74 39                	je     40166d <my_memmove+0xcc>
        {
            for(i = 0;i<length;i++)
  401634:	c7 45 fc 00 00 00 00 	movl   $0x0,-0x4(%rbp)
  40163b:	eb 23                	jmp    401660 <my_memmove+0xbf>
            {
                *(dst+i) = *(src+i);
  40163d:	8b 45 fc             	mov    -0x4(%rbp),%eax
  401640:	48 63 d0             	movslq %eax,%rdx
  401643:	48 8b 45 e0          	mov    -0x20(%rbp),%rax
  401647:	48 01 c2             	add    %rax,%rdx
  40164a:	8b 45 fc             	mov    -0x4(%rbp),%eax
  40164d:	48 63 c8             	movslq %eax,%rcx
  401650:	48 8b 45 e8          	mov    -0x18(%rbp),%rax
  401654:	48 01 c8             	add    %rcx,%rax
  401657:	0f b6 00             	movzbl (%rax),%eax
  40165a:	88 02                	mov    %al,(%rdx)
    else 
    {    
        bool overlap = (abs(dst-src)>(length*sizeof(uint8_t))) || (src-dst>0);
        if(overlap)         /* Check for condition where forward copy is acceptable*/
        {
            for(i = 0;i<length;i++)
  40165c:	83 45 fc 01          	addl   $0x1,-0x4(%rbp)
  401660:	8b 45 fc             	mov    -0x4(%rbp),%eax
  401663:	48 98                	cltq   
  401665:	48 3b 45 d8          	cmp    -0x28(%rbp),%rax
  401669:	72 d2                	jb     40163d <my_memmove+0x9c>
  40166b:	eb 35                	jmp    4016a2 <my_memmove+0x101>

            } 
        }        
        else         /*Carry out copy from reverse during overlapping source and destinations*/
        {
            for(i = length-1;i>=0;i--)
  40166d:	48 8b 45 d8          	mov    -0x28(%rbp),%rax
  401671:	83 e8 01             	sub    $0x1,%eax
  401674:	89 45 fc             	mov    %eax,-0x4(%rbp)
  401677:	eb 23                	jmp    40169c <my_memmove+0xfb>
            {
                *(dst+i) = *(src+i);
  401679:	8b 45 fc             	mov    -0x4(%rbp),%eax
  40167c:	48 63 d0             	movslq %eax,%rdx
  40167f:	48 8b 45 e0          	mov    -0x20(%rbp),%rax
  401683:	48 01 c2             	add    %rax,%rdx
  401686:	8b 45 fc             	mov    -0x4(%rbp),%eax
  401689:	48 63 c8             	movslq %eax,%rcx
  40168c:	48 8b 45 e8          	mov    -0x18(%rbp),%rax
  401690:	48 01 c8             	add    %rcx,%rax
  401693:	0f b6 00             	movzbl (%rax),%eax
  401696:	88 02                	mov    %al,(%rdx)

            } 
        }        
        else         /*Carry out copy from reverse during overlapping source and destinations*/
        {
            for(i = length-1;i>=0;i--)
  401698:	83 6d fc 01          	subl   $0x1,-0x4(%rbp)
  40169c:	83 7d fc 00          	cmpl   $0x0,-0x4(%rbp)
  4016a0:	79 d7                	jns    401679 <my_memmove+0xd8>
                *(dst+i) = *(src+i);

            }
        }
    }
    return dst;
  4016a2:	48 8b 45 e0          	mov    -0x20(%rbp),%rax
}
  4016a6:	c9                   	leaveq 
  4016a7:	c3                   	retq   

00000000004016a8 <my_memcpy>:


uint8_t * my_memcpy(uint8_t * src, uint8_t * dst, size_t length)
{
  4016a8:	55                   	push   %rbp
  4016a9:	48 89 e5             	mov    %rsp,%rbp
  4016ac:	48 83 ec 30          	sub    $0x30,%rsp
  4016b0:	48 89 7d e8          	mov    %rdi,-0x18(%rbp)
  4016b4:	48 89 75 e0          	mov    %rsi,-0x20(%rbp)
  4016b8:	48 89 55 d8          	mov    %rdx,-0x28(%rbp)
	uint8_t i;
	if(src == NULL || dst == NULL)
  4016bc:	48 83 7d e8 00       	cmpq   $0x0,-0x18(%rbp)
  4016c1:	74 07                	je     4016ca <my_memcpy+0x22>
  4016c3:	48 83 7d e0 00       	cmpq   $0x0,-0x20(%rbp)
  4016c8:	75 14                	jne    4016de <my_memcpy+0x36>
 	{
 		printf("\nNothing is assigned to source..exiting\n");
  4016ca:	bf b0 1a 40 00       	mov    $0x401ab0,%edi
  4016cf:	e8 7c ee ff ff       	callq  400550 <puts@plt>
 		exit(1);
  4016d4:	bf 01 00 00 00       	mov    $0x1,%edi
  4016d9:	e8 c2 ee ff ff       	callq  4005a0 <exit@plt>
 	}
 	else           /*This does not check for overlap conditions*/
 	{
    	for(i = 0;i<length;i++)
  4016de:	c6 45 ff 00          	movb   $0x0,-0x1(%rbp)
  4016e2:	eb 25                	jmp    401709 <my_memcpy+0x61>
 		{
 			*(dst+i) = *(src+i);
  4016e4:	0f b6 55 ff          	movzbl -0x1(%rbp),%edx
  4016e8:	48 8b 45 e0          	mov    -0x20(%rbp),%rax
  4016ec:	48 01 c2             	add    %rax,%rdx
  4016ef:	0f b6 4d ff          	movzbl -0x1(%rbp),%ecx
  4016f3:	48 8b 45 e8          	mov    -0x18(%rbp),%rax
  4016f7:	48 01 c8             	add    %rcx,%rax
  4016fa:	0f b6 00             	movzbl (%rax),%eax
  4016fd:	88 02                	mov    %al,(%rdx)
 		printf("\nNothing is assigned to source..exiting\n");
 		exit(1);
 	}
 	else           /*This does not check for overlap conditions*/
 	{
    	for(i = 0;i<length;i++)
  4016ff:	0f b6 45 ff          	movzbl -0x1(%rbp),%eax
  401703:	83 c0 01             	add    $0x1,%eax
  401706:	88 45 ff             	mov    %al,-0x1(%rbp)
  401709:	0f b6 45 ff          	movzbl -0x1(%rbp),%eax
  40170d:	48 3b 45 d8          	cmp    -0x28(%rbp),%rax
  401711:	72 d1                	jb     4016e4 <my_memcpy+0x3c>
 		{
 			*(dst+i) = *(src+i);
 		}
 	}
 	return dst; 
  401713:	48 8b 45 e0          	mov    -0x20(%rbp),%rax
}
  401717:	c9                   	leaveq 
  401718:	c3                   	retq   

0000000000401719 <my_memset>:

uint8_t * my_memset(uint8_t * src, size_t length, uint8_t value)
{ 
  401719:	55                   	push   %rbp
  40171a:	48 89 e5             	mov    %rsp,%rbp
  40171d:	48 83 ec 30          	sub    $0x30,%rsp
  401721:	48 89 7d e8          	mov    %rdi,-0x18(%rbp)
  401725:	48 89 75 e0          	mov    %rsi,-0x20(%rbp)
  401729:	89 d0                	mov    %edx,%eax
  40172b:	88 45 dc             	mov    %al,-0x24(%rbp)
	uint8_t i;
	if(src == NULL)
  40172e:	48 83 7d e8 00       	cmpq   $0x0,-0x18(%rbp)
  401733:	75 14                	jne    401749 <my_memset+0x30>
 	{
 		printf("src pointer doesn't point to anything..exiting\n");
  401735:	bf d8 1a 40 00       	mov    $0x401ad8,%edi
  40173a:	e8 11 ee ff ff       	callq  400550 <puts@plt>
 		exit(1);
  40173f:	bf 01 00 00 00       	mov    $0x1,%edi
  401744:	e8 57 ee ff ff       	callq  4005a0 <exit@plt>
 	}
 	for(i = 0;i<length;i++)   
  401749:	c6 45 ff 00          	movb   $0x0,-0x1(%rbp)
  40174d:	eb 1b                	jmp    40176a <my_memset+0x51>
 	{
 		*(src+i) = value;
  40174f:	0f b6 55 ff          	movzbl -0x1(%rbp),%edx
  401753:	48 8b 45 e8          	mov    -0x18(%rbp),%rax
  401757:	48 01 c2             	add    %rax,%rdx
  40175a:	0f b6 45 dc          	movzbl -0x24(%rbp),%eax
  40175e:	88 02                	mov    %al,(%rdx)
	if(src == NULL)
 	{
 		printf("src pointer doesn't point to anything..exiting\n");
 		exit(1);
 	}
 	for(i = 0;i<length;i++)   
  401760:	0f b6 45 ff          	movzbl -0x1(%rbp),%eax
  401764:	83 c0 01             	add    $0x1,%eax
  401767:	88 45 ff             	mov    %al,-0x1(%rbp)
  40176a:	0f b6 45 ff          	movzbl -0x1(%rbp),%eax
  40176e:	48 3b 45 e0          	cmp    -0x20(%rbp),%rax
  401772:	72 db                	jb     40174f <my_memset+0x36>
 	{
 		*(src+i) = value;
 	}
    return src;
  401774:	48 8b 45 e8          	mov    -0x18(%rbp),%rax
}
  401778:	c9                   	leaveq 
  401779:	c3                   	retq   

000000000040177a <my_memzero>:

uint8_t * my_memzero(uint8_t * src, size_t length)
{
  40177a:	55                   	push   %rbp
  40177b:	48 89 e5             	mov    %rsp,%rbp
  40177e:	48 83 ec 10          	sub    $0x10,%rsp
  401782:	48 89 7d f8          	mov    %rdi,-0x8(%rbp)
  401786:	48 89 75 f0          	mov    %rsi,-0x10(%rbp)
    src = my_memset(src, length, 0);
  40178a:	48 8b 4d f0          	mov    -0x10(%rbp),%rcx
  40178e:	48 8b 45 f8          	mov    -0x8(%rbp),%rax
  401792:	ba 00 00 00 00       	mov    $0x0,%edx
  401797:	48 89 ce             	mov    %rcx,%rsi
  40179a:	48 89 c7             	mov    %rax,%rdi
  40179d:	e8 77 ff ff ff       	callq  401719 <my_memset>
  4017a2:	48 89 45 f8          	mov    %rax,-0x8(%rbp)
    return src;
  4017a6:	48 8b 45 f8          	mov    -0x8(%rbp),%rax
}
  4017aa:	c9                   	leaveq 
  4017ab:	c3                   	retq   

00000000004017ac <my_reverse>:

uint8_t * my_reverse(uint8_t * src, size_t length)
{
  4017ac:	55                   	push   %rbp
  4017ad:	48 89 e5             	mov    %rsp,%rbp
  4017b0:	48 83 ec 20          	sub    $0x20,%rsp
  4017b4:	48 89 7d e8          	mov    %rdi,-0x18(%rbp)
  4017b8:	48 89 75 e0          	mov    %rsi,-0x20(%rbp)
	uint8_t i;
    if(src == NULL)
  4017bc:	48 83 7d e8 00       	cmpq   $0x0,-0x18(%rbp)
  4017c1:	75 14                	jne    4017d7 <my_reverse+0x2b>
    {
        printf("src pointer doesn't point to anything..exiting\n");
  4017c3:	bf d8 1a 40 00       	mov    $0x401ad8,%edi
  4017c8:	e8 83 ed ff ff       	callq  400550 <puts@plt>
        exit(1);
  4017cd:	bf 01 00 00 00       	mov    $0x1,%edi
  4017d2:	e8 c9 ed ff ff       	callq  4005a0 <exit@plt>
    }
    for(i = 0;i<(length/2);i++)  /*Reverse copy*/
  4017d7:	c6 45 ff 00          	movb   $0x0,-0x1(%rbp)
  4017db:	eb 39                	jmp    401816 <my_reverse+0x6a>
    { 
  		swap((src+i),(src+(length-i)-1));
  4017dd:	0f b6 45 ff          	movzbl -0x1(%rbp),%eax
  4017e1:	48 8b 55 e0          	mov    -0x20(%rbp),%rdx
  4017e5:	48 29 c2             	sub    %rax,%rdx
  4017e8:	48 89 d0             	mov    %rdx,%rax
  4017eb:	48 8d 50 ff          	lea    -0x1(%rax),%rdx
  4017ef:	48 8b 45 e8          	mov    -0x18(%rbp),%rax
  4017f3:	48 01 c2             	add    %rax,%rdx
  4017f6:	0f b6 4d ff          	movzbl -0x1(%rbp),%ecx
  4017fa:	48 8b 45 e8          	mov    -0x18(%rbp),%rax
  4017fe:	48 01 c8             	add    %rcx,%rax
  401801:	48 89 d6             	mov    %rdx,%rsi
  401804:	48 89 c7             	mov    %rax,%rdi
  401807:	e8 20 00 00 00       	callq  40182c <swap>
    if(src == NULL)
    {
        printf("src pointer doesn't point to anything..exiting\n");
        exit(1);
    }
    for(i = 0;i<(length/2);i++)  /*Reverse copy*/
  40180c:	0f b6 45 ff          	movzbl -0x1(%rbp),%eax
  401810:	83 c0 01             	add    $0x1,%eax
  401813:	88 45 ff             	mov    %al,-0x1(%rbp)
  401816:	0f b6 45 ff          	movzbl -0x1(%rbp),%eax
  40181a:	48 8b 55 e0          	mov    -0x20(%rbp),%rdx
  40181e:	48 d1 ea             	shr    %rdx
  401821:	48 39 d0             	cmp    %rdx,%rax
  401824:	72 b7                	jb     4017dd <my_reverse+0x31>
    { 
  		swap((src+i),(src+(length-i)-1));
    }
    return src;
  401826:	48 8b 45 e8          	mov    -0x18(%rbp),%rax
}
  40182a:	c9                   	leaveq 
  40182b:	c3                   	retq   

000000000040182c <swap>:

void swap(uint8_t*a, uint8_t*b) 
{
  40182c:	55                   	push   %rbp
  40182d:	48 89 e5             	mov    %rsp,%rbp
  401830:	48 89 7d e8          	mov    %rdi,-0x18(%rbp)
  401834:	48 89 75 e0          	mov    %rsi,-0x20(%rbp)
	uint8_t temp;
	temp = *a;
  401838:	48 8b 45 e8          	mov    -0x18(%rbp),%rax
  40183c:	0f b6 00             	movzbl (%rax),%eax
  40183f:	88 45 ff             	mov    %al,-0x1(%rbp)
	*a = *b;
  401842:	48 8b 45 e0          	mov    -0x20(%rbp),%rax
  401846:	0f b6 10             	movzbl (%rax),%edx
  401849:	48 8b 45 e8          	mov    -0x18(%rbp),%rax
  40184d:	88 10                	mov    %dl,(%rax)
	*b = temp;
  40184f:	48 8b 45 e0          	mov    -0x20(%rbp),%rax
  401853:	0f b6 55 ff          	movzbl -0x1(%rbp),%edx
  401857:	88 10                	mov    %dl,(%rax)
}
  401859:	90                   	nop
  40185a:	5d                   	pop    %rbp
  40185b:	c3                   	retq   

000000000040185c <reserve_words>:

uint32_t * reserve_words(size_t length)
{
  40185c:	55                   	push   %rbp
  40185d:	48 89 e5             	mov    %rsp,%rbp
  401860:	48 83 ec 20          	sub    $0x20,%rsp
  401864:	48 89 7d e8          	mov    %rdi,-0x18(%rbp)
	uint32_t *ptr = (uint32_t*) malloc(length * sizeof(uint32_t));  //memory allocated using malloc
  401868:	48 8b 45 e8          	mov    -0x18(%rbp),%rax
  40186c:	48 c1 e0 02          	shl    $0x2,%rax
  401870:	48 89 c7             	mov    %rax,%rdi
  401873:	e8 18 ed ff ff       	callq  400590 <malloc@plt>
  401878:	48 89 45 f8          	mov    %rax,-0x8(%rbp)
    if(ptr == NULL)                     
  40187c:	48 83 7d f8 00       	cmpq   $0x0,-0x8(%rbp)
  401881:	75 16                	jne    401899 <reserve_words+0x3d>
    {
        printf("Error! memory not allocated.");
  401883:	bf 07 1b 40 00       	mov    $0x401b07,%edi
  401888:	b8 00 00 00 00       	mov    $0x0,%eax
  40188d:	e8 de ec ff ff       	callq  400570 <printf@plt>
        return NULL;
  401892:	b8 00 00 00 00       	mov    $0x0,%eax
  401897:	eb 04                	jmp    40189d <reserve_words+0x41>
    }
    else
    	return ptr;
  401899:	48 8b 45 f8          	mov    -0x8(%rbp),%rax
}
  40189d:	c9                   	leaveq 
  40189e:	c3                   	retq   

000000000040189f <free_words>:

void free_words(uint32_t * src)
{
  40189f:	55                   	push   %rbp
  4018a0:	48 89 e5             	mov    %rsp,%rbp
  4018a3:	48 83 ec 10          	sub    $0x10,%rsp
  4018a7:	48 89 7d f8          	mov    %rdi,-0x8(%rbp)
    if(src == NULL)
  4018ab:	48 83 7d f8 00       	cmpq   $0x0,-0x8(%rbp)
  4018b0:	75 14                	jne    4018c6 <free_words+0x27>
    {
        printf("src pointer doesn't point to anything..exiting\n");
  4018b2:	bf d8 1a 40 00       	mov    $0x401ad8,%edi
  4018b7:	e8 94 ec ff ff       	callq  400550 <puts@plt>
        exit(1);
  4018bc:	bf 01 00 00 00       	mov    $0x1,%edi
  4018c1:	e8 da ec ff ff       	callq  4005a0 <exit@plt>
    }
	free(src);
  4018c6:	48 8b 45 f8          	mov    -0x8(%rbp),%rax
  4018ca:	48 89 c7             	mov    %rax,%rdi
  4018cd:	e8 6e ec ff ff       	callq  400540 <free@plt>
}
  4018d2:	90                   	nop
  4018d3:	c9                   	leaveq 
  4018d4:	c3                   	retq   
  4018d5:	66 2e 0f 1f 84 00 00 	nopw   %cs:0x0(%rax,%rax,1)
  4018dc:	00 00 00 
  4018df:	90                   	nop

00000000004018e0 <__libc_csu_init>:
  4018e0:	41 57                	push   %r15
  4018e2:	41 56                	push   %r14
  4018e4:	41 89 ff             	mov    %edi,%r15d
  4018e7:	41 55                	push   %r13
  4018e9:	41 54                	push   %r12
  4018eb:	4c 8d 25 1e 15 20 00 	lea    0x20151e(%rip),%r12        # 602e10 <__frame_dummy_init_array_entry>
  4018f2:	55                   	push   %rbp
  4018f3:	48 8d 2d 1e 15 20 00 	lea    0x20151e(%rip),%rbp        # 602e18 <__init_array_end>
  4018fa:	53                   	push   %rbx
  4018fb:	49 89 f6             	mov    %rsi,%r14
  4018fe:	49 89 d5             	mov    %rdx,%r13
  401901:	4c 29 e5             	sub    %r12,%rbp
  401904:	48 83 ec 08          	sub    $0x8,%rsp
  401908:	48 c1 fd 03          	sar    $0x3,%rbp
  40190c:	e8 f7 eb ff ff       	callq  400508 <_init>
  401911:	48 85 ed             	test   %rbp,%rbp
  401914:	74 20                	je     401936 <__libc_csu_init+0x56>
  401916:	31 db                	xor    %ebx,%ebx
  401918:	0f 1f 84 00 00 00 00 	nopl   0x0(%rax,%rax,1)
  40191f:	00 
  401920:	4c 89 ea             	mov    %r13,%rdx
  401923:	4c 89 f6             	mov    %r14,%rsi
  401926:	44 89 ff             	mov    %r15d,%edi
  401929:	41 ff 14 dc          	callq  *(%r12,%rbx,8)
  40192d:	48 83 c3 01          	add    $0x1,%rbx
  401931:	48 39 eb             	cmp    %rbp,%rbx
  401934:	75 ea                	jne    401920 <__libc_csu_init+0x40>
  401936:	48 83 c4 08          	add    $0x8,%rsp
  40193a:	5b                   	pop    %rbx
  40193b:	5d                   	pop    %rbp
  40193c:	41 5c                	pop    %r12
  40193e:	41 5d                	pop    %r13
  401940:	41 5e                	pop    %r14
  401942:	41 5f                	pop    %r15
  401944:	c3                   	retq   
  401945:	90                   	nop
  401946:	66 2e 0f 1f 84 00 00 	nopw   %cs:0x0(%rax,%rax,1)
  40194d:	00 00 00 

0000000000401950 <__libc_csu_fini>:
  401950:	f3 c3                	repz retq 

Disassembly of section .fini:

0000000000401954 <_fini>:
  401954:	48 83 ec 08          	sub    $0x8,%rsp
  401958:	48 83 c4 08          	add    $0x8,%rsp
  40195c:	c3                   	retq   
